///////////////////////////////////////////////////////////////////////////////
//                                                                            /
// IAR C/C++ Compiler V8.10.3.10338/W32 for 8051        12/Jun/2016  11:58:49 /
// Copyright 2004-2011 IAR Systems AB.                                        /
//                                                                            /
//    Core               =  plain                                             /
//    Code model         =  banked                                            /
//    Data model         =  large                                             /
//    Calling convention =  xdata reentrant                                   /
//    Constant location  =  data_rom                                          /
//    Dptr setup         =  1,16                                              /
//    Source file        =  E:\CollegeCourse\ThDSemester-2\EmbeddedSystem\Zig /
//                          Bee\ZStack-final\Projects\zstack\Utilities\Serial /
//                          App\Source\SerialApp.c                            /
//    Command line       =  -f E:\CollegeCourse\ThDSemester-2\EmbeddedSystem\ /
//                          ZigBee\ZStack-final\Projects\zstack\Utilities\Ser /
//                          ialApp\CC2530DB\..\..\..\Tools\CC2530DB\f8wCoord. /
//                          cfg (-DCPU32MHZ -DROOT=__near_func                /
//                          -DMAC_CFG_APP_PENDING_QUEUE=TRUE                  /
//                          -DZDO_COORDINATOR -DRTR_NWK -DBLINK_LEDS) -f      /
//                          E:\CollegeCourse\ThDSemester-2\EmbeddedSystem\Zig /
//                          Bee\ZStack-final\Projects\zstack\Utilities\Serial /
//                          App\CC2530DB\..\..\..\Tools\CC2530DB\f8wConfig.cf /
//                          g (-DSECURE=0 -DZG_SECURE_DYNAMIC=0 -DREFLECTOR   /
//                          -DDEFAULT_CHANLIST=0x00000800                     /
//                          -DZDAPP_CONFIG_PAN_ID=0x1223                      /
//                          -DNWK_START_DELAY=100 -DEXTENDED_JOINING_RANDOM_M /
//                          ASK=0x007F -DBEACON_REQUEST_DELAY=100             /
//                          -DBEACON_REQ_DELAY_MASK=0x00FF                    /
//                          -DROUTE_EXPIRY_TIME=30 -DAPSC_ACK_WAIT_DURATION_P /
//                          OLLED=3000 -DNWK_INDIRECT_MSG_TIMEOUT=7           /
//                          -DMAX_RREQ_ENTRIES=8 -DAPSC_MAX_FRAME_RETRIES=3   /
//                          -DNWK_MAX_DATA_RETRIES=2                          /
//                          -DMAX_POLL_FAILURE_RETRIES=2 -DMAX_BCAST=9        /
//                          -DAPS_MAX_GROUPS=16 -DMAX_RTG_ENTRIES=40          /
//                          -DNWK_MAX_BINDING_ENTRIES=4                       /
//                          -DMAX_BINDING_CLUSTER_IDS=4                       /
//                          "-DDEFAULT_KEY={0x01, 0x03, 0x05, 0x07, 0x09,     /
//                          0x0B, 0x0D, 0x0F, 0x00, 0x02, 0x04, 0x06, 0x08,   /
//                          0x0A, 0x0C, 0x0D}" -DMAC_MAX_FRAME_SIZE=116       /
//                          "-DCONST=const __code" -DGENERIC=__generic        /
//                          -DRFD_RCVC_ALWAYS_ON=FALSE -DPOLL_RATE=1000       /
//                          -DQUEUED_POLL_RATE=100 -DRESPONSE_POLL_RATE=100)  /
//                          -DREJOIN_POLL_RATE=440 E:\CollegeCourse\ThDSemest /
//                          er-2\EmbeddedSystem\ZigBee\ZStack-final\Projects\ /
//                          zstack\Utilities\SerialApp\Source\SerialApp.c -D  /
//                          ZIGBEEPRO -D HAL_UART=TRUE -D SERIAL_APP_PORT=0   /
//                          -D LCD_SUPPORTED -lC E:\CollegeCourse\ThDSemester /
//                          -2\EmbeddedSystem\ZigBee\ZStack-final\Projects\zs /
//                          tack\Utilities\SerialApp\CC2530DB\CoordinatorEB-P /
//                          ro\List\ -lA E:\CollegeCourse\ThDSemester-2\Embed /
//                          dedSystem\ZigBee\ZStack-final\Projects\zstack\Uti /
//                          lities\SerialApp\CC2530DB\CoordinatorEB-Pro\List\ /
//                           --diag_suppress Pe001,Pa010 -o                   /
//                          E:\CollegeCourse\ThDSemester-2\EmbeddedSystem\Zig /
//                          Bee\ZStack-final\Projects\zstack\Utilities\Serial /
//                          App\CC2530DB\CoordinatorEB-Pro\Obj\ -e --debug    /
//                          --core=plain --dptr=16,1 --data_model=large       /
//                          --code_model=banked --calling_convention=xdata_re /
//                          entrant --place_constants=data_rom                /
//                          --nr_virtual_regs 8 -I E:\CollegeCourse\ThDSemest /
//                          er-2\EmbeddedSystem\ZigBee\ZStack-final\Projects\ /
//                          zstack\Utilities\SerialApp\CC2530DB\ -I           /
//                          E:\CollegeCourse\ThDSemester-2\EmbeddedSystem\Zig /
//                          Bee\ZStack-final\Projects\zstack\Utilities\Serial /
//                          App\CC2530DB\..\SOURCE\ -I                        /
//                          E:\CollegeCourse\ThDSemester-2\EmbeddedSystem\Zig /
//                          Bee\ZStack-final\Projects\zstack\Utilities\Serial /
//                          App\CC2530DB\..\..\..\ZMAIN\TI2530DB\ -I          /
//                          E:\CollegeCourse\ThDSemester-2\EmbeddedSystem\Zig /
//                          Bee\ZStack-final\Projects\zstack\Utilities\Serial /
//                          App\CC2530DB\..\..\..\..\..\COMPONENTS\MT\ -I     /
//                          E:\CollegeCourse\ThDSemester-2\EmbeddedSystem\Zig /
//                          Bee\ZStack-final\Projects\zstack\Utilities\Serial /
//                          App\CC2530DB\..\..\..\..\..\COMPONENTS\HAL\INCLUD /
//                          E\ -I E:\CollegeCourse\ThDSemester-2\EmbeddedSyst /
//                          em\ZigBee\ZStack-final\Projects\zstack\Utilities\ /
//                          SerialApp\CC2530DB\..\..\..\..\..\COMPONENTS\HAL\ /
//                          TARGET\CC2530EB\ -I E:\CollegeCourse\ThDSemester- /
//                          2\EmbeddedSystem\ZigBee\ZStack-final\Projects\zst /
//                          ack\Utilities\SerialApp\CC2530DB\..\..\..\..\..\C /
//                          OMPONENTS\OSAL\MCU\CCSOC\ -I                      /
//                          E:\CollegeCourse\ThDSemester-2\EmbeddedSystem\Zig /
//                          Bee\ZStack-final\Projects\zstack\Utilities\Serial /
//                          App\CC2530DB\..\..\..\..\..\COMPONENTS\OSAL\INCLU /
//                          DE\ -I E:\CollegeCourse\ThDSemester-2\EmbeddedSys /
//                          tem\ZigBee\ZStack-final\Projects\zstack\Utilities /
//                          \SerialApp\CC2530DB\..\..\..\..\..\COMPONENTS\STA /
//                          CK\AF\ -I E:\CollegeCourse\ThDSemester-2\Embedded /
//                          System\ZigBee\ZStack-final\Projects\zstack\Utilit /
//                          ies\SerialApp\CC2530DB\..\..\..\..\..\COMPONENTS\ /
//                          STACK\NWK\ -I E:\CollegeCourse\ThDSemester-2\Embe /
//                          ddedSystem\ZigBee\ZStack-final\Projects\zstack\Ut /
//                          ilities\SerialApp\CC2530DB\..\..\..\..\..\COMPONE /
//                          NTS\STACK\SEC\ -I E:\CollegeCourse\ThDSemester-2\ /
//                          EmbeddedSystem\ZigBee\ZStack-final\Projects\zstac /
//                          k\Utilities\SerialApp\CC2530DB\..\..\..\..\..\COM /
//                          PONENTS\STACK\SAPI\ -I E:\CollegeCourse\ThDSemest /
//                          er-2\EmbeddedSystem\ZigBee\ZStack-final\Projects\ /
//                          zstack\Utilities\SerialApp\CC2530DB\..\..\..\..\. /
//                          .\COMPONENTS\STACK\SYS\ -I                        /
//                          E:\CollegeCourse\ThDSemester-2\EmbeddedSystem\Zig /
//                          Bee\ZStack-final\Projects\zstack\Utilities\Serial /
//                          App\CC2530DB\..\..\..\..\..\COMPONENTS\STACK\ZDO\ /
//                           -I E:\CollegeCourse\ThDSemester-2\EmbeddedSystem /
//                          \ZigBee\ZStack-final\Projects\zstack\Utilities\Se /
//                          rialApp\CC2530DB\..\..\..\..\..\COMPONENTS\ZMAC\F /
//                          8W\ -I E:\CollegeCourse\ThDSemester-2\EmbeddedSys /
//                          tem\ZigBee\ZStack-final\Projects\zstack\Utilities /
//                          \SerialApp\CC2530DB\..\..\..\..\..\COMPONENTS\ZMA /
//                          C\ -I E:\CollegeCourse\ThDSemester-2\EmbeddedSyst /
//                          em\ZigBee\ZStack-final\Projects\zstack\Utilities\ /
//                          SerialApp\CC2530DB\..\..\..\..\..\COMPONENTS\SERV /
//                          ICES\SADDR\ -I E:\CollegeCourse\ThDSemester-2\Emb /
//                          eddedSystem\ZigBee\ZStack-final\Projects\zstack\U /
//                          tilities\SerialApp\CC2530DB\..\..\..\..\..\COMPON /
//                          ENTS\SERVICES\SDATA\ -I                           /
//                          E:\CollegeCourse\ThDSemester-2\EmbeddedSystem\Zig /
//                          Bee\ZStack-final\Projects\zstack\Utilities\Serial /
//                          App\CC2530DB\..\..\..\..\..\COMPONENTS\MAC\INCLUD /
//                          E\ -I E:\CollegeCourse\ThDSemester-2\EmbeddedSyst /
//                          em\ZigBee\ZStack-final\Projects\zstack\Utilities\ /
//                          SerialApp\CC2530DB\..\..\..\..\..\COMPONENTS\MAC\ /
//                          HIGH_LEVEL\ -I E:\CollegeCourse\ThDSemester-2\Emb /
//                          eddedSystem\ZigBee\ZStack-final\Projects\zstack\U /
//                          tilities\SerialApp\CC2530DB\..\..\..\..\..\COMPON /
//                          ENTS\MAC\LOW_LEVEL\srf04\ -I                      /
//                          E:\CollegeCourse\ThDSemester-2\EmbeddedSystem\Zig /
//                          Bee\ZStack-final\Projects\zstack\Utilities\Serial /
//                          App\CC2530DB\..\..\..\..\..\COMPONENTS\MAC\LOW_LE /
//                          VEL\srf04\SINGLE_CHIP\ -Ohz --require_prototypes  /
//    List file          =  E:\CollegeCourse\ThDSemester-2\EmbeddedSystem\Zig /
//                          Bee\ZStack-final\Projects\zstack\Utilities\Serial /
//                          App\CC2530DB\CoordinatorEB-Pro\List\SerialApp.s51 /
//                                                                            /
//                                                                            /
///////////////////////////////////////////////////////////////////////////////

        NAME SerialApp

        RTMODEL "__SystemLibrary", "CLib"
        RTMODEL "__calling_convention", "xdata_reentrant"
        RTMODEL "__code_model", "banked"
        RTMODEL "__core", "plain"
        RTMODEL "__data_model", "large"
        RTMODEL "__dptr_size", "16"
        RTMODEL "__extended_stack", "disabled"
        RTMODEL "__location_for_constants", "data"
        RTMODEL "__number_of_dptrs", "1"
        RTMODEL "__rt_version", "1"

        RSEG DOVERLAY:DATA:NOROOT(0)
        RSEG IOVERLAY:IDATA:NOROOT(0)
        RSEG ISTACK:IDATA:NOROOT(0)
        RSEG PSTACK:XDATA:NOROOT(0)
        RSEG XSTACK:XDATA:NOROOT(0)

        EXTERN ?ALLOC_XSTACK8
        EXTERN ?BANKED_ENTER_XDATA
        EXTERN ?BANKED_LEAVE_XDATA
        EXTERN ?BDISPATCH
        EXTERN ?DEALLOC_XSTACK8
        EXTERN ?MOVE_LONG8_XDATA_XDATA
        EXTERN ?PUSH_XSTACK8_X_TWO
        EXTERN ?PUSH_XSTACK_I_ONE
        EXTERN ?PUSH_XSTACK_I_THREE
        EXTERN ?PUSH_XSTACK_I_TWO
        EXTERN ?US_SWITCH_DENSE
        EXTERN ?V0
        EXTERN ?XSP
        EXTERN ?XSTACK_DISP0_8
        EXTERN __INIT_XDATA_I
        EXTERN __INIT_XDATA_Z

        FUNCTION ??SerialApp_CallBack?relay,0203H
        FUNCTION ??SerialApp_ConnectReqProcess?relay,0203H
        PUBLIC ??SerialApp_Init?relay
        FUNCTION ??SerialApp_Init?relay,0203H
        PUBLIC ??SerialApp_ProcessEvent?relay
        FUNCTION ??SerialApp_ProcessEvent?relay,0203H
        FUNCTION ??SerialApp_ProcessMSGCmd?relay,0203H
        FUNCTION ??SerialApp_Send?relay,0203H
        PUBLIC SampleApp_NwkState
        FUNCTION SerialApp_CallBack,021603H
        ARGFRAME XSTACK, 0, STACK
        LOCFRAME XSTACK, 9, STACK
        PUBLIC SerialApp_ClusterList
        FUNCTION SerialApp_ConnectReqProcess,021203H
        ARGFRAME XSTACK, 14, STACK
        ARGFRAME IOVERLAY, 0, STATIC
        ARGFRAME DOVERLAY, 0, STATIC
        LOCFRAME ISTACK, 2, STACK
        LOCFRAME XSTACK, 51, STACK
        PUBLIC SerialApp_Init
        FUNCTION SerialApp_Init,021203H
        ARGFRAME XSTACK, 0, STACK
        LOCFRAME XSTACK, 38, STACK
        PUBLIC SerialApp_ProcessEvent
        FUNCTION SerialApp_ProcessEvent,021203H
        ARGFRAME XSTACK, 0, STACK
        LOCFRAME XSTACK, 21, STACK
        FUNCTION SerialApp_ProcessMSGCmd,0a1203H
        ARGFRAME XSTACK, 12, STACK
        ARGFRAME IOVERLAY, 0, STATIC
        ARGFRAME DOVERLAY, 0, STATIC
        LOCFRAME ISTACK, 1, STACK
        LOCFRAME XSTACK, 17, STACK
        FUNCTION SerialApp_Send,021203H
        ARGFRAME XSTACK, 12, STACK
        ARGFRAME IOVERLAY, 0, STATIC
        ARGFRAME DOVERLAY, 0, STATIC
        LOCFRAME XSTACK, 19, STACK
        PUBLIC SerialApp_SimpleDesc
        PUBLIC SerialApp_TaskID
        PUBLIC SerialApp_epDesc
        PUBLIC cB
        
        CFI Names cfiNames0
        CFI StackFrame CFA_SP SP IDATA
        CFI StackFrame CFA_PSP16 PSP16 XDATA
        CFI StackFrame CFA_XSP16 XSP16 XDATA
        CFI StaticOverlayFrame CFA_IOVERLAY IOVERLAY
        CFI StaticOverlayFrame CFA_DOVERLAY DOVERLAY
        CFI Resource `PSW.CY`:1, `B.BR0`:1, `B.BR1`:1, `B.BR2`:1, `B.BR3`:1
        CFI Resource `B.BR4`:1, `B.BR5`:1, `B.BR6`:1, `B.BR7`:1, `VB.BR8`:1
        CFI Resource `VB.BR9`:1, `VB.BR10`:1, `VB.BR11`:1, `VB.BR12`:1
        CFI Resource `VB.BR13`:1, `VB.BR14`:1, `VB.BR15`:1, VB:8, B:8, A:8
        CFI Resource PSW:8, DPL0:8, DPH0:8, R0:8, R1:8, R2:8, R3:8, R4:8, R5:8
        CFI Resource R6:8, R7:8, V0:8, V1:8, V2:8, V3:8, V4:8, V5:8, V6:8, V7:8
        CFI Resource SP:8, PSPH:8, PSPL:8, PSP16:16, XSPH:8, XSPL:8, XSP16:16
        CFI VirtualResource ?RET:24
        CFI Resource ?BRET_EXT:8
        CFI VirtualResource ?RET_HIGH:8, ?RET_LOW:8
        CFI ResourceParts PSP16 PSPH, PSPL
        CFI ResourceParts XSP16 XSPH, XSPL
        CFI ResourceParts ?RET ?BRET_EXT, ?RET_HIGH, ?RET_LOW
        CFI EndNames cfiNames0
        
        CFI Common cfiCommon0 Using cfiNames0
        CFI CodeAlign 1
        CFI DataAlign -1
        CFI ReturnAddress ?RET CODE
        CFI CFA_DOVERLAY Used
        CFI CFA_IOVERLAY Used
        CFI CFA_SP SP+-3
        CFI CFA_PSP16 PSP16+0
        CFI CFA_XSP16 XSP16+0
        CFI `PSW.CY` SameValue
        CFI `B.BR0` SameValue
        CFI `B.BR1` SameValue
        CFI `B.BR2` SameValue
        CFI `B.BR3` SameValue
        CFI `B.BR4` SameValue
        CFI `B.BR5` SameValue
        CFI `B.BR6` SameValue
        CFI `B.BR7` SameValue
        CFI `VB.BR8` SameValue
        CFI `VB.BR9` SameValue
        CFI `VB.BR10` SameValue
        CFI `VB.BR11` SameValue
        CFI `VB.BR12` SameValue
        CFI `VB.BR13` SameValue
        CFI `VB.BR14` SameValue
        CFI `VB.BR15` SameValue
        CFI VB SameValue
        CFI B Undefined
        CFI A Undefined
        CFI PSW SameValue
        CFI DPL0 SameValue
        CFI DPH0 SameValue
        CFI R0 Undefined
        CFI R1 Undefined
        CFI R2 Undefined
        CFI R3 Undefined
        CFI R4 Undefined
        CFI R5 Undefined
        CFI R6 SameValue
        CFI R7 SameValue
        CFI V0 SameValue
        CFI V1 SameValue
        CFI V2 SameValue
        CFI V3 SameValue
        CFI V4 SameValue
        CFI V5 SameValue
        CFI V6 SameValue
        CFI V7 SameValue
        CFI PSPH Undefined
        CFI PSPL Undefined
        CFI XSPH Undefined
        CFI XSPL Undefined
        CFI ?RET Concat
        CFI ?BRET_EXT Frame(CFA_SP, 3)
        CFI ?RET_HIGH Frame(CFA_SP, 2)
        CFI ?RET_LOW Frame(CFA_SP, 1)
        CFI EndCommon cfiCommon0
        
        
        CFI Common cfiCommon1 Using cfiNames0
        CFI CodeAlign 1
        CFI DataAlign -1
        CFI ReturnAddress ?RET CODE
        CFI CFA_DOVERLAY Used
        CFI CFA_IOVERLAY Used
        CFI CFA_SP SP+-2
        CFI CFA_PSP16 PSP16+0
        CFI CFA_XSP16 XSP16+0
        CFI `PSW.CY` SameValue
        CFI `B.BR0` SameValue
        CFI `B.BR1` SameValue
        CFI `B.BR2` SameValue
        CFI `B.BR3` SameValue
        CFI `B.BR4` SameValue
        CFI `B.BR5` SameValue
        CFI `B.BR6` SameValue
        CFI `B.BR7` SameValue
        CFI `VB.BR8` SameValue
        CFI `VB.BR9` SameValue
        CFI `VB.BR10` SameValue
        CFI `VB.BR11` SameValue
        CFI `VB.BR12` SameValue
        CFI `VB.BR13` SameValue
        CFI `VB.BR14` SameValue
        CFI `VB.BR15` SameValue
        CFI VB SameValue
        CFI B SameValue
        CFI A SameValue
        CFI PSW SameValue
        CFI DPL0 SameValue
        CFI DPH0 SameValue
        CFI R0 SameValue
        CFI R1 SameValue
        CFI R2 SameValue
        CFI R3 SameValue
        CFI R4 SameValue
        CFI R5 SameValue
        CFI R6 SameValue
        CFI R7 SameValue
        CFI V0 SameValue
        CFI V1 SameValue
        CFI V2 SameValue
        CFI V3 SameValue
        CFI V4 SameValue
        CFI V5 SameValue
        CFI V6 SameValue
        CFI V7 SameValue
        CFI PSPH Undefined
        CFI PSPL Undefined
        CFI XSPH Undefined
        CFI XSPL Undefined
        CFI ?RET Concat
        CFI ?BRET_EXT SameValue
        CFI ?RET_HIGH Frame(CFA_SP, 2)
        CFI ?RET_LOW Frame(CFA_SP, 1)
        CFI EndCommon cfiCommon1
        
afRegister          SYMBOL "afRegister"
RegisterForKeys     SYMBOL "RegisterForKeys"
HalUARTOpen         SYMBOL "HalUARTOpen"
HalLcdWriteString   SYMBOL "HalLcdWriteString"
ZDO_RegisterForZDOMsg SYMBOL "ZDO_RegisterForZDOMsg"
HalLedSet           SYMBOL "HalLedSet"
osal_msg_deallocate SYMBOL "osal_msg_deallocate"
osal_msg_receive    SYMBOL "osal_msg_receive"
AF_DataRequest      SYMBOL "AF_DataRequest"
osal_set_event      SYMBOL "osal_set_event"
HalUARTWrite        SYMBOL "HalUARTWrite"
osal_memcpy         SYMBOL "osal_memcpy"
osal_stop_timerEx   SYMBOL "osal_stop_timerEx"
osal_start_timerEx  SYMBOL "osal_start_timerEx"
HalUARTRead         SYMBOL "HalUARTRead"
NLME_GetShortAddr   SYMBOL "NLME_GetShortAddr"
sprintf             SYMBOL "sprintf"
strlen              SYMBOL "strlen"
??AF_DataRequest?relay SYMBOL "?relay", AF_DataRequest
??HalLcdWriteString?relay SYMBOL "?relay", HalLcdWriteString
??HalLedSet?relay   SYMBOL "?relay", HalLedSet
??HalUARTOpen?relay SYMBOL "?relay", HalUARTOpen
??HalUARTRead?relay SYMBOL "?relay", HalUARTRead
??HalUARTWrite?relay SYMBOL "?relay", HalUARTWrite
??NLME_GetShortAddr?relay SYMBOL "?relay", NLME_GetShortAddr
??RegisterForKeys?relay SYMBOL "?relay", RegisterForKeys
??ZDO_RegisterForZDOMsg?relay SYMBOL "?relay", ZDO_RegisterForZDOMsg
??afRegister?relay  SYMBOL "?relay", afRegister
??osal_memcpy?relay SYMBOL "?relay", osal_memcpy
??osal_msg_deallocate?relay SYMBOL "?relay", osal_msg_deallocate
??osal_msg_receive?relay SYMBOL "?relay", osal_msg_receive
??osal_set_event?relay SYMBOL "?relay", osal_set_event
??osal_start_timerEx?relay SYMBOL "?relay", osal_start_timerEx
??osal_stop_timerEx?relay SYMBOL "?relay", osal_stop_timerEx
??sprintf?relay     SYMBOL "?relay", sprintf
??strlen?relay      SYMBOL "?relay", strlen
SerialApp_Init      SYMBOL "SerialApp_Init"
??SerialApp_Init?relay SYMBOL "?relay", SerialApp_Init
SerialApp_ProcessEvent SYMBOL "SerialApp_ProcessEvent"
??SerialApp_ProcessEvent?relay SYMBOL "?relay", SerialApp_ProcessEvent

        EXTERN afRegister
        FUNCTION afRegister,0202H
        ARGFRAME ISTACK, 0, STACK
        ARGFRAME PSTACK, 0, STACK
        ARGFRAME XSTACK, 38, STACK
        ARGFRAME IOVERLAY, 0, STATIC
        ARGFRAME DOVERLAY, 0, STATIC
        EXTERN RegisterForKeys
        FUNCTION RegisterForKeys,0202H
        ARGFRAME ISTACK, 0, STACK
        ARGFRAME PSTACK, 0, STACK
        ARGFRAME XSTACK, 38, STACK
        ARGFRAME IOVERLAY, 0, STATIC
        ARGFRAME DOVERLAY, 0, STATIC
        EXTERN HalUARTOpen
        FUNCTION HalUARTOpen,0202H
        ARGFRAME ISTACK, 0, STACK
        ARGFRAME PSTACK, 0, STACK
        ARGFRAME XSTACK, 38, STACK
        ARGFRAME IOVERLAY, 0, STATIC
        ARGFRAME DOVERLAY, 0, STATIC
        EXTERN HalLcdWriteString
        FUNCTION HalLcdWriteString,0202H
        ARGFRAME ISTACK, 0, STACK
        ARGFRAME PSTACK, 0, STACK
        ARGFRAME XSTACK, 38, STACK
        ARGFRAME IOVERLAY, 0, STATIC
        ARGFRAME DOVERLAY, 0, STATIC
        EXTERN ZDO_RegisterForZDOMsg
        FUNCTION ZDO_RegisterForZDOMsg,0202H
        ARGFRAME ISTACK, 0, STACK
        ARGFRAME PSTACK, 0, STACK
        ARGFRAME XSTACK, 38, STACK
        ARGFRAME IOVERLAY, 0, STATIC
        ARGFRAME DOVERLAY, 0, STATIC
        EXTERN HalLedSet
        FUNCTION HalLedSet,0202H
        ARGFRAME ISTACK, 0, STACK
        ARGFRAME PSTACK, 0, STACK
        ARGFRAME XSTACK, 42, STACK
        ARGFRAME IOVERLAY, 0, STATIC
        ARGFRAME DOVERLAY, 0, STATIC
        EXTERN osal_msg_deallocate
        FUNCTION osal_msg_deallocate,0202H
        ARGFRAME ISTACK, 0, STACK
        ARGFRAME PSTACK, 0, STACK
        ARGFRAME XSTACK, 12, STACK
        ARGFRAME IOVERLAY, 0, STATIC
        ARGFRAME DOVERLAY, 0, STATIC
        EXTERN osal_msg_receive
        FUNCTION osal_msg_receive,0202H
        ARGFRAME ISTACK, 0, STACK
        ARGFRAME PSTACK, 0, STACK
        ARGFRAME XSTACK, 12, STACK
        ARGFRAME IOVERLAY, 0, STATIC
        ARGFRAME DOVERLAY, 0, STATIC
        EXTERN AF_DataRequest
        FUNCTION AF_DataRequest,0202H
        ARGFRAME ISTACK, 0, STACK
        ARGFRAME PSTACK, 0, STACK
        ARGFRAME XSTACK, 51, STACK
        ARGFRAME IOVERLAY, 0, STATIC
        ARGFRAME DOVERLAY, 0, STATIC
        EXTERN osal_set_event
        FUNCTION osal_set_event,0202H
        ARGFRAME ISTACK, 0, STACK
        ARGFRAME PSTACK, 0, STACK
        ARGFRAME XSTACK, 14, STACK
        ARGFRAME IOVERLAY, 0, STATIC
        ARGFRAME DOVERLAY, 0, STATIC
        EXTERN HalUARTWrite
        FUNCTION HalUARTWrite,0202H
        ARGFRAME ISTACK, 0, STACK
        ARGFRAME PSTACK, 0, STACK
        ARGFRAME XSTACK, 42, STACK
        ARGFRAME IOVERLAY, 0, STATIC
        ARGFRAME DOVERLAY, 0, STATIC
        EXTERN osal_memcpy
        FUNCTION osal_memcpy,0202H
        ARGFRAME ISTACK, 0, STACK
        ARGFRAME PSTACK, 0, STACK
        ARGFRAME XSTACK, 17, STACK
        ARGFRAME IOVERLAY, 0, STATIC
        ARGFRAME DOVERLAY, 0, STATIC
        EXTERN osal_stop_timerEx
        FUNCTION osal_stop_timerEx,0202H
        ARGFRAME ISTACK, 0, STACK
        ARGFRAME PSTACK, 0, STACK
        ARGFRAME XSTACK, 14, STACK
        ARGFRAME IOVERLAY, 0, STATIC
        ARGFRAME DOVERLAY, 0, STATIC
        EXTERN osal_start_timerEx
        FUNCTION osal_start_timerEx,0202H
        ARGFRAME ISTACK, 0, STACK
        ARGFRAME PSTACK, 0, STACK
        ARGFRAME XSTACK, 14, STACK
        ARGFRAME IOVERLAY, 0, STATIC
        ARGFRAME DOVERLAY, 0, STATIC
        EXTERN HalUARTRead
        FUNCTION HalUARTRead,0202H
        ARGFRAME ISTACK, 0, STACK
        ARGFRAME PSTACK, 0, STACK
        ARGFRAME XSTACK, 10, STACK
        ARGFRAME IOVERLAY, 0, STATIC
        ARGFRAME DOVERLAY, 0, STATIC
        EXTERN NLME_GetShortAddr
        FUNCTION NLME_GetShortAddr,0202H
        ARGFRAME ISTACK, 0, STACK
        ARGFRAME PSTACK, 0, STACK
        ARGFRAME XSTACK, 42, STACK
        ARGFRAME IOVERLAY, 0, STATIC
        ARGFRAME DOVERLAY, 0, STATIC
        EXTERN sprintf
        FUNCTION sprintf,0202H
        ARGFRAME ISTACK, 0, STACK
        ARGFRAME PSTACK, 0, STACK
        ARGFRAME XSTACK, 48, STACK
        ARGFRAME IOVERLAY, 0, STATIC
        ARGFRAME DOVERLAY, 0, STATIC
        EXTERN strlen
        FUNCTION strlen,010202H
        ARGFRAME ISTACK, 0, STACK
        ARGFRAME PSTACK, 0, STACK
        ARGFRAME XSTACK, 42, STACK
        ARGFRAME IOVERLAY, 0, STATIC
        ARGFRAME DOVERLAY, 0, STATIC
        EXTERN ??AF_DataRequest?relay
        FUNCTION ??AF_DataRequest?relay,00H
        EXTERN ??HalLcdWriteString?relay
        FUNCTION ??HalLcdWriteString?relay,00H
        EXTERN ??HalLedSet?relay
        FUNCTION ??HalLedSet?relay,00H
        EXTERN ??HalUARTOpen?relay
        FUNCTION ??HalUARTOpen?relay,00H
        EXTERN ??HalUARTRead?relay
        FUNCTION ??HalUARTRead?relay,00H
        EXTERN ??HalUARTWrite?relay
        FUNCTION ??HalUARTWrite?relay,00H
        EXTERN ??NLME_GetShortAddr?relay
        FUNCTION ??NLME_GetShortAddr?relay,00H
        EXTERN ??RegisterForKeys?relay
        FUNCTION ??RegisterForKeys?relay,00H
        EXTERN ??ZDO_RegisterForZDOMsg?relay
        FUNCTION ??ZDO_RegisterForZDOMsg?relay,00H
        EXTERN ??afRegister?relay
        FUNCTION ??afRegister?relay,00H
        EXTERN ??osal_memcpy?relay
        FUNCTION ??osal_memcpy?relay,00H
        EXTERN ??osal_msg_deallocate?relay
        FUNCTION ??osal_msg_deallocate?relay,00H
        EXTERN ??osal_msg_receive?relay
        FUNCTION ??osal_msg_receive?relay,00H
        EXTERN ??osal_set_event?relay
        FUNCTION ??osal_set_event?relay,00H
        EXTERN ??osal_start_timerEx?relay
        FUNCTION ??osal_start_timerEx?relay,00H
        EXTERN ??osal_stop_timerEx?relay
        FUNCTION ??osal_stop_timerEx?relay,00H
        EXTERN ??sprintf?relay
        FUNCTION ??sprintf?relay,00H
        EXTERN ??strlen?relay
        FUNCTION ??strlen?relay,00H

// E:\CollegeCourse\ThDSemester-2\EmbeddedSystem\ZigBee\ZStack-final\Projects\zstack\Utilities\SerialApp\Source\SerialApp.c
//    1 /*********************************************************************
//    2  * INCLUDES
//    3  */
//    4 
//    5 #include <stdio.h>
//    6 #include <string.h>
//    7 #include "AF.h"
//    8 #include "OnBoard.h"
//    9 #include "OSAL_Tasks.h"
//   10 #include "SerialApp.h"
//   11 #include "ZDApp.h"
//   12 #include "ZDObject.h"
//   13 #include "ZDProfile.h"
//   14 
//   15 #include "hal_drivers.h"
//   16 #include "hal_key.h"
//   17 #if defined ( LCD_SUPPORTED )
//   18   #include "hal_lcd.h"
//   19 #endif
//   20 #include "hal_led.h"
//   21 #include "hal_uart.h"
//   22 
//   23 /*********************************************************************
//   24  * MACROS
//   25  */
//   26 
//   27 /*********************************************************************
//   28  * CONSTANTS
//   29  */
//   30 
//   31 #if !defined( SERIAL_APP_PORT )
//   32 #define SERIAL_APP_PORT  0
//   33 #endif
//   34 
//   35 #if !defined( SERIAL_APP_BAUD )
//   36   //#define SERIAL_APP_BAUD  HAL_UART_BR_38400
//   37   #define SERIAL_APP_BAUD  HAL_UART_BR_38400
//   38 #endif
//   39 
//   40 // When the Rx buf space is less than this threshold, invoke the Rx callback.
//   41 #if !defined( SERIAL_APP_THRESH )
//   42 #define SERIAL_APP_THRESH  64
//   43 #endif
//   44 
//   45 #if !defined( SERIAL_APP_RX_SZ )
//   46 #define SERIAL_APP_RX_SZ  128
//   47 #endif
//   48 
//   49 #if !defined( SERIAL_APP_TX_SZ )
//   50 #define SERIAL_APP_TX_SZ  128
//   51 #endif
//   52 
//   53 // Millisecs of idle time after a byte is received before invoking Rx callback.
//   54 #if !defined( SERIAL_APP_IDLE )
//   55 #define SERIAL_APP_IDLE  6
//   56 #endif
//   57 
//   58 // Loopback Rx bytes to Tx for throughput testing.
//   59 #if !defined( SERIAL_APP_LOOPBACK )
//   60 #define SERIAL_APP_LOOPBACK  FALSE
//   61 #endif
//   62 
//   63 // This is the max byte count per OTA message.
//   64 #if !defined( SERIAL_APP_TX_MAX )
//   65 #define SERIAL_APP_TX_MAX  80
//   66 #endif
//   67 
//   68 #define SERIAL_APP_RSP_CNT  4
//   69 
//   70 // This list should be filled with Application specific Cluster IDs.

        RSEG XDATA_ROM_C:CONST:REORDER:NOROOT(0)
        DATA8
//   71 const cId_t SerialApp_ClusterList[SERIALAPP_MAX_CLUSTERS] =
SerialApp_ClusterList:
        DATA16
        DW 1
        DW 2
        DW 3
        DW 4
//   72 {
//   73   SERIALAPP_CLUSTERID1,
//   74   SERIALAPP_CLUSTERID2,
//   75   SERIALAPP_CONNECTREQ_CLUSTER,            
//   76   SERIALAPP_CONNECTRSP_CLUSTER             
//   77 };
//   78 

        RSEG XDATA_ROM_C:CONST:REORDER:NOROOT(0)
        DATA8
//   79 const SimpleDescriptionFormat_t SerialApp_SimpleDesc =
SerialApp_SimpleDesc:
        DB 1
        DATA16
        DW 3845
        DW 1
        DATA8
        DB 0
        DB 4
        DATA16
        DW SerialApp_ClusterList
        DATA8
        DB 4
        DATA16
        DW SerialApp_ClusterList
//   80 {
//   81 #if ZDO_COORDINATOR
//   82   SERIALAPP_COORPOINT,
//   83 #else
//   84   SERIALAPP_ENDPOINT,              //  int   Endpoint;
//   85 #endif
//   86   SERIALAPP_PROFID,                //  uint16 AppProfId[2];
//   87   SERIALAPP_DEVICEID,              //  uint16 AppDeviceId[2];
//   88   SERIALAPP_DEVICE_VERSION,        //  int   AppDevVer:4;
//   89   SERIALAPP_FLAGS,                 //  int   AppFlags:4;
//   90   SERIALAPP_MAX_CLUSTERS,          //  byte  AppNumInClusters;
//   91   (cId_t *)SerialApp_ClusterList,  //  byte *pAppInClusterList;
//   92   SERIALAPP_MAX_CLUSTERS,          //  byte  AppNumOutClusters;
//   93   (cId_t *)SerialApp_ClusterList   //  byte *pAppOutClusterList;
//   94 };
//   95 

        RSEG XDATA_I:XDATA:NOROOT(0)
//   96 endPointDesc_t SerialApp_epDesc =
SerialApp_epDesc:
        DATA8
        DS 6
        REQUIRE `?<Initializer for SerialApp_epDesc>`
        REQUIRE __INIT_XDATA_I
//   97 {
//   98 #if ZDO_COORDINATOR
//   99   SERIALAPP_COORPOINT,
//  100 #else
//  101   SERIALAPP_ENDPOINT,              //  int   Endpoint;
//  102 #endif
//  103  &SerialApp_TaskID,
//  104   (SimpleDescriptionFormat_t *)&SerialApp_SimpleDesc,
//  105   noLatencyReqs
//  106 };
//  107 
//  108 /*********************************************************************
//  109  * TYPEDEFS
//  110  */
//  111 
//  112 /*********************************************************************
//  113  * GLOBAL VARIABLES
//  114  */

        RSEG XDATA_Z:XDATA:NOROOT(0)
        DATA8
//  115 devStates_t SampleApp_NwkState;   
SampleApp_NwkState:
        DS 1
        REQUIRE __INIT_XDATA_Z

        RSEG XDATA_Z:XDATA:NOROOT(0)
        DATA8
//  116 uint8 SerialApp_TaskID;           // Task ID for internal task/event processing.
SerialApp_TaskID:
        DS 1
        REQUIRE __INIT_XDATA_Z
//  117 
//  118 /*********************************************************************
//  119  * EXTERNAL VARIABLES
//  120  */
//  121 
//  122 /*********************************************************************
//  123  * EXTERNAL FUNCTIONS
//  124  */
//  125 
//  126 /*********************************************************************
//  127  * LOCAL VARIABLES
//  128  */
//  129 

        RSEG XDATA_Z:XDATA:NOROOT(0)
        DATA8
//  130 static uint8 SerialApp_MsgID;
SerialApp_MsgID:
        DS 1
        REQUIRE __INIT_XDATA_Z
//  131 

        RSEG XDATA_Z:XDATA:NOROOT(0)
        DATA8
//  132 static afAddrType_t SerialApp_TxAddr;
SerialApp_TxAddr:
        DS 12
        REQUIRE __INIT_XDATA_Z

        RSEG XDATA_Z:XDATA:NOROOT(0)
        DATA8
//  133 static uint8 SerialApp_TxSeq;
SerialApp_TxSeq:
        DS 1
        REQUIRE __INIT_XDATA_Z

        RSEG XDATA_Z:XDATA:NOROOT(0)
        DATA8
//  134 static uint8 SerialApp_TxBuf[SERIAL_APP_TX_MAX+1];
SerialApp_TxBuf:
        DS 81
        REQUIRE __INIT_XDATA_Z

        RSEG XDATA_Z:XDATA:NOROOT(0)
        DATA8
//  135 static uint8 SerialApp_TxLen;
SerialApp_TxLen:
        DS 1
        REQUIRE __INIT_XDATA_Z
//  136 

        RSEG XDATA_Z:XDATA:NOROOT(0)
        DATA8
//  137 static afAddrType_t SerialApp_RxAddr;
SerialApp_RxAddr:
        DS 12
        REQUIRE __INIT_XDATA_Z

        RSEG XDATA_Z:XDATA:NOROOT(0)
        DATA8
//  138 static uint8 SerialApp_RxSeq;
SerialApp_RxSeq:
        DS 1
        REQUIRE __INIT_XDATA_Z

        RSEG XDATA_Z:XDATA:NOROOT(0)
        DATA32
//  139 static uint8 SerialApp_RspBuf[SERIAL_APP_RSP_CNT];
SerialApp_RspBuf:
        DS 4
        REQUIRE __INIT_XDATA_Z
//  140 
//  141 /*********************************************************************
//  142  * LOCAL FUNCTIONS
//  143  */
//  144 
//  145 static void SerialApp_ProcessMSGCmd( afIncomingMSGPacket_t *pkt );
//  146 static void SerialApp_Send(void);
//  147 static void SerialApp_Resp(void);
//  148 static void SerialApp_CallBack(uint8 port, uint8 event); 
//  149 static void SerialApp_DeviceConnect(void);              
//  150 static void SerialApp_DeviceConnectRsp(uint8*);         
//  151 static void SerialApp_ConnectReqProcess(uint8*, uint8);           
//  152 
//  153 struct circleBuffer{
//  154   uint8 buffer[10][40];
//  155   uint8 eleSize[10];
//  156   uint8 capacity;
//  157   uint8 size;
//  158   uint8 head;
//  159   uint8 tail;
//  160 };
//  161 

        RSEG XDATA_Z:XDATA:NOROOT(0)
        DATA8
//  162 struct circleBuffer cB;
cB:
        DS 414
        REQUIRE __INIT_XDATA_Z
//  163 
//  164 static int circleBufferInit(void);
//  165 static int circleBufferHasElement(void);
//  166 static uint8* popElement(uint8* eleSize);
//  167 static int pushElement(uint8* eleAddr, uint8 eleSize);
//  168 static void send_uart(void);
//  169 
//  170 int circleBufferInit(void){
//  171   cB.capacity=10;
//  172   cB.size=0;
//  173   cB.head=0;
//  174   cB.tail=0;
//  175   return 0;
//  176 }
//  177 
//  178 int circleBufferHasElement(void){
//  179   if(cB.size>0){
//  180     return 1;
//  181   }
//  182   else{
//  183     return 0;
//  184   }
//  185 }
//  186 
//  187 uint8* popElement(uint8* eleSize){
//  188   uint8* returnAddress;
//  189   if(cB.size<=0){
//  190     *eleSize=0;
//  191     return NULL;
//  192   }
//  193   else{
//  194     *eleSize=cB.eleSize[cB.head];
//  195     returnAddress=(uint8*)&cB.buffer[cB.head];
//  196     cB.head++;
//  197     if(cB.head==cB.capacity){
//  198       cB.head=0; 
//  199     }
//  200     cB.size--;
//  201     return returnAddress;
//  202   }
//  203 }
//  204 
//  205 int pushElement(uint8* eleAddr, uint8 eleSize){
//  206   /*
//  207   char buff[30] = {0};
//  208   sprintf(buff,"push, %d, %d, %d.\n\r",cB.size, cB.capacity, eleSize);
//  209   HalUARTWrite( SERIAL_APP_PORT, (uint8*)buff, strlen(buff));
//  210   */
//  211   if(cB.size==cB.capacity){
//  212     return -1; 
//  213   }
//  214   else{
//  215     osal_memcpy(cB.buffer[cB.tail],eleAddr,eleSize);
//  216     cB.eleSize[cB.tail]=eleSize;
//  217     cB.tail++;
//  218     if(cB.tail==cB.capacity){
//  219       cB.tail=0; 
//  220     }
//  221     cB.size++;
//  222     osal_set_event( SerialApp_TaskID, SEND_UART );
//  223     return 0;
//  224   }
//  225 }
//  226 
//  227 void send_uart(void){
//  228   //char buff[30] = {0};
//  229   uint8* buffer;
//  230   uint8 size;
//  231   if(circleBufferHasElement()==1){
//  232     buffer=popElement(&size);
//  233     //sprintf(buff,"send_uart, %p %d.\n\r",buffer,size);
//  234     //HalUARTWrite( SERIAL_APP_PORT, (uint8*)buff, strlen(buff));
//  235     HalUARTWrite( SERIAL_APP_PORT, buffer, size);
//  236   }
//  237   else{
//  238     return;
//  239   }
//  240 }
//  241 
//  242 /*********************************************************************
//  243  * @fn      SerialApp_Init
//  244  *
//  245  * @brief   This is called during OSAL tasks' initialization.
//  246  *
//  247  * @param   task_id - the Task ID assigned by OSAL.
//  248  *
//  249  * @return  none
//  250  */

        RSEG BANKED_CODE:CODE:NOROOT(0)
//  251 void SerialApp_Init( uint8 task_id )
SerialApp_Init:
        CFI Block cfiBlock0 Using cfiCommon0
        CFI Function SerialApp_Init
        CODE
//  252 {
        FUNCALL SerialApp_Init, afRegister
        LOCFRAME ISTACK, 0, STACK
        LOCFRAME PSTACK, 0, STACK
        LOCFRAME XSTACK, 38, STACK
        LOCFRAME IOVERLAY, 0, STATIC
        LOCFRAME DOVERLAY, 0, STATIC
        ARGFRAME ISTACK, 0, STACK
        ARGFRAME PSTACK, 0, STACK
        ARGFRAME XSTACK, 38, STACK
        ARGFRAME IOVERLAY, 0, STATIC
        ARGFRAME DOVERLAY, 0, STATIC
        FUNCALL SerialApp_Init, RegisterForKeys
        LOCFRAME ISTACK, 0, STACK
        LOCFRAME PSTACK, 0, STACK
        LOCFRAME XSTACK, 38, STACK
        LOCFRAME IOVERLAY, 0, STATIC
        LOCFRAME DOVERLAY, 0, STATIC
        ARGFRAME ISTACK, 0, STACK
        ARGFRAME PSTACK, 0, STACK
        ARGFRAME XSTACK, 38, STACK
        ARGFRAME IOVERLAY, 0, STATIC
        ARGFRAME DOVERLAY, 0, STATIC
        FUNCALL SerialApp_Init, HalUARTOpen
        LOCFRAME ISTACK, 0, STACK
        LOCFRAME PSTACK, 0, STACK
        LOCFRAME XSTACK, 38, STACK
        LOCFRAME IOVERLAY, 0, STATIC
        LOCFRAME DOVERLAY, 0, STATIC
        ARGFRAME ISTACK, 0, STACK
        ARGFRAME PSTACK, 0, STACK
        ARGFRAME XSTACK, 38, STACK
        ARGFRAME IOVERLAY, 0, STATIC
        ARGFRAME DOVERLAY, 0, STATIC
        FUNCALL SerialApp_Init, HalLcdWriteString
        LOCFRAME ISTACK, 0, STACK
        LOCFRAME PSTACK, 0, STACK
        LOCFRAME XSTACK, 38, STACK
        LOCFRAME IOVERLAY, 0, STATIC
        LOCFRAME DOVERLAY, 0, STATIC
        ARGFRAME ISTACK, 0, STACK
        ARGFRAME PSTACK, 0, STACK
        ARGFRAME XSTACK, 38, STACK
        ARGFRAME IOVERLAY, 0, STATIC
        ARGFRAME DOVERLAY, 0, STATIC
        FUNCALL SerialApp_Init, ZDO_RegisterForZDOMsg
        LOCFRAME ISTACK, 0, STACK
        LOCFRAME PSTACK, 0, STACK
        LOCFRAME XSTACK, 38, STACK
        LOCFRAME IOVERLAY, 0, STATIC
        LOCFRAME DOVERLAY, 0, STATIC
        ARGFRAME ISTACK, 0, STACK
        ARGFRAME PSTACK, 0, STACK
        ARGFRAME XSTACK, 38, STACK
        ARGFRAME IOVERLAY, 0, STATIC
        ARGFRAME DOVERLAY, 0, STATIC
        FUNCALL SerialApp_Init, ZDO_RegisterForZDOMsg
        LOCFRAME ISTACK, 0, STACK
        LOCFRAME PSTACK, 0, STACK
        LOCFRAME XSTACK, 38, STACK
        LOCFRAME IOVERLAY, 0, STATIC
        LOCFRAME DOVERLAY, 0, STATIC
        ARGFRAME ISTACK, 0, STACK
        ARGFRAME PSTACK, 0, STACK
        ARGFRAME XSTACK, 38, STACK
        ARGFRAME IOVERLAY, 0, STATIC
        ARGFRAME DOVERLAY, 0, STATIC
        MOV     A,#-0x9
        LCALL   ?BANKED_ENTER_XDATA
        CFI DPH0 load(1, XDATA, add(CFA_XSP16, literal(-1)))
        CFI DPL0 load(1, XDATA, add(CFA_XSP16, literal(-2)))
        CFI ?BRET_EXT load(1, XDATA, add(CFA_XSP16, literal(-3)))
        CFI ?RET_HIGH load(1, XDATA, add(CFA_XSP16, literal(-4)))
        CFI ?RET_LOW load(1, XDATA, add(CFA_XSP16, literal(-5)))
        CFI R7 load(1, XDATA, add(CFA_XSP16, literal(-6)))
        CFI V0 load(1, XDATA, add(CFA_XSP16, literal(-7)))
        CFI VB load(1, XDATA, add(CFA_XSP16, literal(-8)))
        CFI R6 load(1, XDATA, add(CFA_XSP16, literal(-9)))
        CFI CFA_SP SP+0
        CFI CFA_XSP16 add(XSP16, 9)
        ; Saved register size: 9
        ; Auto size: 29
        MOV     A,#-0x1d
        LCALL   ?ALLOC_XSTACK8
        CFI CFA_XSP16 add(XSP16, 38)
        MOV     A,R1
        MOV     R6,A
//  253   halUARTCfg_t uartConfig;
//  254 
//  255   SerialApp_TaskID = task_id;
        MOV     DPTR,#SerialApp_TaskID
        MOVX    @DPTR,A
//  256   SerialApp_RxSeq = 0xC3;
        MOV     DPTR,#SerialApp_RxSeq
        MOV     A,#-0x3d
        MOVX    @DPTR,A
//  257   SampleApp_NwkState = DEV_INIT;       
        MOV     DPTR,#SampleApp_NwkState
        MOV     A,#0x1
        MOVX    @DPTR,A
//  258   
//  259   afRegister( (endPointDesc_t *)&SerialApp_epDesc );
        ; Setup parameters for call to function afRegister
        MOV     R2,#SerialApp_epDesc & 0xff
        MOV     R3,#(SerialApp_epDesc >> 8) & 0xff
        LCALL   ??afRegister?relay
//  260 
//  261   RegisterForKeys( task_id );
        ; Setup parameters for call to function RegisterForKeys
        MOV     A,R6
        MOV     R1,A
        LCALL   ??RegisterForKeys?relay
//  262 
//  263   uartConfig.configured           = TRUE;              // 2x30 don't care - see uart driver.
        MOV     DPL,?XSP + 0
        MOV     DPH,?XSP + 1
        MOV     A,#0x1
        MOVX    @DPTR,A
//  264   uartConfig.baudRate             = SERIAL_APP_BAUD;
        LCALL   ?XSTACK_DISP0_8
        MOV     A,#0x2
        MOVX    @DPTR,A
//  265   uartConfig.flowControl          = FALSE;
        LCALL   ?XSTACK_DISP0_8
        CLR     A
        MOVX    @DPTR,A
//  266   uartConfig.flowControlThreshold = SERIAL_APP_THRESH; // 2x30 don't care - see uart driver.
        MOV     A,#0x3
        LCALL   ?XSTACK_DISP0_8
        MOV     A,#0x40
        MOVX    @DPTR,A
        INC     DPTR
        CLR     A
        MOVX    @DPTR,A
//  267   uartConfig.rx.maxBufSize        = SERIAL_APP_RX_SZ;  // 2x30 don't care - see uart driver.
        MOV     A,#0xa
        LCALL   ?XSTACK_DISP0_8
        MOV     A,#-0x80
        MOVX    @DPTR,A
        INC     DPTR
        CLR     A
        MOVX    @DPTR,A
//  268   uartConfig.tx.maxBufSize        = SERIAL_APP_TX_SZ;  // 2x30 don't care - see uart driver.
        MOV     A,#0x12
        LCALL   ?XSTACK_DISP0_8
        MOV     A,#-0x80
        MOVX    @DPTR,A
        INC     DPTR
        CLR     A
        MOVX    @DPTR,A
//  269   uartConfig.idleTimeout          = SERIAL_APP_IDLE;   // 2x30 don't care - see uart driver.
        MOV     A,#0x5
        LCALL   ?XSTACK_DISP0_8
        MOV     A,#0x6
        MOVX    @DPTR,A
//  270   uartConfig.intEnable            = TRUE;              // 2x30 don't care - see uart driver.
        MOV     A,#0x16
        LCALL   ?XSTACK_DISP0_8
        MOV     A,#0x1
        MOVX    @DPTR,A
//  271   uartConfig.callBackFunc         = SerialApp_CallBack;
        MOV     A,#0x1b
        LCALL   ?XSTACK_DISP0_8
        MOV     A,#??SerialApp_CallBack?relay & 0xff
        MOVX    @DPTR,A
        INC     DPTR
        MOV     A,#(??SerialApp_CallBack?relay >> 8) & 0xff
        MOVX    @DPTR,A
//  272   HalUARTOpen (SERIAL_APP_PORT, &uartConfig);
        ; Setup parameters for call to function HalUARTOpen
        MOV     DPL,?XSP + 0
        MOV     DPH,?XSP + 1
        MOV     R2,DPL
        MOV     R3,DPH
        MOV     R1,#0x0
        LCALL   ??HalUARTOpen?relay
//  273 
//  274 #if defined ( LCD_SUPPORTED )
//  275   HalLcdWriteString( "SerialApp", HAL_LCD_LINE_2 );
        ; Setup parameters for call to function HalLcdWriteString
        MOV     R1,#0x2
        MOV     R2,#`?<Constant "SerialApp">` & 0xff
        MOV     R3,#(`?<Constant "SerialApp">` >> 8) & 0xff
        LCALL   ??HalLcdWriteString?relay
//  276 #endif
//  277   
//  278   ZDO_RegisterForZDOMsg( SerialApp_TaskID, End_Device_Bind_rsp );
        ; Setup parameters for call to function ZDO_RegisterForZDOMsg
        MOV     R2,#0x20
        MOV     R3,#-0x80
        MOV     DPTR,#SerialApp_TaskID
        MOVX    A,@DPTR
        MOV     R1,A
        LCALL   ??ZDO_RegisterForZDOMsg?relay
//  279   ZDO_RegisterForZDOMsg( SerialApp_TaskID, Match_Desc_rsp );
        ; Setup parameters for call to function ZDO_RegisterForZDOMsg
        MOV     R2,#0x6
        MOV     R3,#-0x80
        MOV     DPTR,#SerialApp_TaskID
        MOVX    A,@DPTR
        MOV     R1,A
        LCALL   ??ZDO_RegisterForZDOMsg?relay
//  280   circleBufferInit();
        MOV     DPTR,#cB + 410
        MOV     A,#0xa
        MOVX    @DPTR,A
        INC     DPTR
        CLR     A
        MOVX    @DPTR,A
        INC     DPTR
        MOVX    @DPTR,A
        INC     DPTR
        MOVX    @DPTR,A
//  281 }
        MOV     A,#0x1d
        LCALL   ?DEALLOC_XSTACK8
        CFI EndBlock cfiBlock0
        REQUIRE ?Subroutine0
        ; // Fall through to label ?Subroutine0

        RSEG BANKED_CODE:CODE:NOROOT(0)
?Subroutine0:
        CFI Block cfiBlock1 Using cfiCommon0
        CFI NoFunction
        CFI CFA_SP SP+0
        CFI CFA_XSP16 add(XSP16, 9)
        CFI VB load(1, XDATA, add(CFA_XSP16, literal(-8)))
        CFI DPL0 load(1, XDATA, add(CFA_XSP16, literal(-2)))
        CFI DPH0 load(1, XDATA, add(CFA_XSP16, literal(-1)))
        CFI R6 load(1, XDATA, add(CFA_XSP16, literal(-9)))
        CFI R7 load(1, XDATA, add(CFA_XSP16, literal(-6)))
        CFI V0 load(1, XDATA, add(CFA_XSP16, literal(-7)))
        CFI ?BRET_EXT load(1, XDATA, add(CFA_XSP16, literal(-3)))
        CFI ?RET_HIGH load(1, XDATA, add(CFA_XSP16, literal(-4)))
        CFI ?RET_LOW load(1, XDATA, add(CFA_XSP16, literal(-5)))
        MOV     R7,#0x1
        LJMP    ?BANKED_LEAVE_XDATA
        CFI EndBlock cfiBlock1
//  282 
//  283 /*********************************************************************
//  284  * @fn      SerialApp_ProcessEvent
//  285  *
//  286  * @brief   Generic Application Task event processor.
//  287  *
//  288  * @param   task_id  - The OSAL assigned task ID.
//  289  * @param   events   - Bit map of events to process.
//  290  *
//  291  * @return  Event flags of all unprocessed events.
//  292  */

        RSEG BANKED_CODE:CODE:NOROOT(0)
//  293 UINT16 SerialApp_ProcessEvent( uint8 task_id, UINT16 events )
SerialApp_ProcessEvent:
        CFI Block cfiBlock2 Using cfiCommon0
        CFI Function SerialApp_ProcessEvent
        CODE
//  294 {
        FUNCALL SerialApp_ProcessEvent, SerialApp_Send
        LOCFRAME ISTACK, 0, STACK
        LOCFRAME PSTACK, 0, STACK
        LOCFRAME XSTACK, 12, STACK
        LOCFRAME IOVERLAY, 0, STATIC
        LOCFRAME DOVERLAY, 0, STATIC
        ARGFRAME ISTACK, 0, STACK
        ARGFRAME PSTACK, 0, STACK
        ARGFRAME XSTACK, 12, STACK
        ARGFRAME IOVERLAY, 0, STATIC
        ARGFRAME DOVERLAY, 0, STATIC
        FUNCALL SerialApp_ProcessEvent, HalLedSet
        LOCFRAME ISTACK, 0, STACK
        LOCFRAME PSTACK, 0, STACK
        LOCFRAME XSTACK, 12, STACK
        LOCFRAME IOVERLAY, 0, STATIC
        LOCFRAME DOVERLAY, 0, STATIC
        ARGFRAME ISTACK, 0, STACK
        ARGFRAME PSTACK, 0, STACK
        ARGFRAME XSTACK, 12, STACK
        ARGFRAME IOVERLAY, 0, STATIC
        ARGFRAME DOVERLAY, 0, STATIC
        FUNCALL SerialApp_ProcessEvent, osal_msg_deallocate
        LOCFRAME ISTACK, 0, STACK
        LOCFRAME PSTACK, 0, STACK
        LOCFRAME XSTACK, 12, STACK
        LOCFRAME IOVERLAY, 0, STATIC
        LOCFRAME DOVERLAY, 0, STATIC
        ARGFRAME ISTACK, 0, STACK
        ARGFRAME PSTACK, 0, STACK
        ARGFRAME XSTACK, 12, STACK
        ARGFRAME IOVERLAY, 0, STATIC
        ARGFRAME DOVERLAY, 0, STATIC
        FUNCALL SerialApp_ProcessEvent, osal_msg_receive
        LOCFRAME ISTACK, 0, STACK
        LOCFRAME PSTACK, 0, STACK
        LOCFRAME XSTACK, 12, STACK
        LOCFRAME IOVERLAY, 0, STATIC
        LOCFRAME DOVERLAY, 0, STATIC
        ARGFRAME ISTACK, 0, STACK
        ARGFRAME PSTACK, 0, STACK
        ARGFRAME XSTACK, 12, STACK
        ARGFRAME IOVERLAY, 0, STATIC
        ARGFRAME DOVERLAY, 0, STATIC
        FUNCALL SerialApp_ProcessEvent, SerialApp_ProcessMSGCmd
        LOCFRAME ISTACK, 0, STACK
        LOCFRAME PSTACK, 0, STACK
        LOCFRAME XSTACK, 12, STACK
        LOCFRAME IOVERLAY, 0, STATIC
        LOCFRAME DOVERLAY, 0, STATIC
        ARGFRAME ISTACK, 0, STACK
        ARGFRAME PSTACK, 0, STACK
        ARGFRAME XSTACK, 12, STACK
        ARGFRAME IOVERLAY, 0, STATIC
        ARGFRAME DOVERLAY, 0, STATIC
        FUNCALL SerialApp_ProcessEvent, AF_DataRequest
        LOCFRAME ISTACK, 0, STACK
        LOCFRAME PSTACK, 0, STACK
        LOCFRAME XSTACK, 21, STACK
        LOCFRAME IOVERLAY, 0, STATIC
        LOCFRAME DOVERLAY, 0, STATIC
        ARGFRAME ISTACK, 0, STACK
        ARGFRAME PSTACK, 0, STACK
        ARGFRAME XSTACK, 21, STACK
        ARGFRAME IOVERLAY, 0, STATIC
        ARGFRAME DOVERLAY, 0, STATIC
        FUNCALL SerialApp_ProcessEvent, osal_set_event
        LOCFRAME ISTACK, 0, STACK
        LOCFRAME PSTACK, 0, STACK
        LOCFRAME XSTACK, 12, STACK
        LOCFRAME IOVERLAY, 0, STATIC
        LOCFRAME DOVERLAY, 0, STATIC
        ARGFRAME ISTACK, 0, STACK
        ARGFRAME PSTACK, 0, STACK
        ARGFRAME XSTACK, 12, STACK
        ARGFRAME IOVERLAY, 0, STATIC
        ARGFRAME DOVERLAY, 0, STATIC
        FUNCALL SerialApp_ProcessEvent, HalUARTWrite
        LOCFRAME ISTACK, 0, STACK
        LOCFRAME PSTACK, 0, STACK
        LOCFRAME XSTACK, 12, STACK
        LOCFRAME IOVERLAY, 0, STATIC
        LOCFRAME DOVERLAY, 0, STATIC
        ARGFRAME ISTACK, 0, STACK
        ARGFRAME PSTACK, 0, STACK
        ARGFRAME XSTACK, 12, STACK
        ARGFRAME IOVERLAY, 0, STATIC
        ARGFRAME DOVERLAY, 0, STATIC
        MOV     A,#-0xc
        LCALL   ?BANKED_ENTER_XDATA
        CFI DPH0 load(1, XDATA, add(CFA_XSP16, literal(-1)))
        CFI DPL0 load(1, XDATA, add(CFA_XSP16, literal(-2)))
        CFI ?BRET_EXT load(1, XDATA, add(CFA_XSP16, literal(-3)))
        CFI ?RET_HIGH load(1, XDATA, add(CFA_XSP16, literal(-4)))
        CFI ?RET_LOW load(1, XDATA, add(CFA_XSP16, literal(-5)))
        CFI R7 load(1, XDATA, add(CFA_XSP16, literal(-6)))
        CFI V3 load(1, XDATA, add(CFA_XSP16, literal(-7)))
        CFI V2 load(1, XDATA, add(CFA_XSP16, literal(-8)))
        CFI V1 load(1, XDATA, add(CFA_XSP16, literal(-9)))
        CFI V0 load(1, XDATA, add(CFA_XSP16, literal(-10)))
        CFI VB load(1, XDATA, add(CFA_XSP16, literal(-11)))
        CFI R6 load(1, XDATA, add(CFA_XSP16, literal(-12)))
        CFI CFA_SP SP+0
        CFI CFA_XSP16 add(XSP16, 12)
        ; Saved register size: 12
        ; Auto size: 0
        MOV     A,R2
        MOV     R6,A
        MOV     A,R3
        MOV     R7,A
//  295   (void)task_id;  // Intentionally unreferenced parameter
//  296   
//  297   if ( events & SYS_EVENT_MSG )
        ANL     A,#0x80
        JNZ     ??SerialApp_ProcessEvent_0
//  298   {
//  299     afIncomingMSGPacket_t *MSGpkt;
//  300 
//  301     while ( (MSGpkt = (afIncomingMSGPacket_t *)osal_msg_receive( SerialApp_TaskID )) )
//  302     {
//  303       switch ( MSGpkt->hdr.event )
//  304       {
//  305       case AF_INCOMING_MSG_CMD:
//  306         SerialApp_ProcessMSGCmd( MSGpkt );
//  307         break;
//  308         
//  309       case ZDO_STATE_CHANGE:
//  310         SampleApp_NwkState = (devStates_t)(MSGpkt->hdr.status);
//  311         if ( (SampleApp_NwkState == DEV_ZB_COORD)
//  312             || (SampleApp_NwkState == DEV_ROUTER)
//  313             || (SampleApp_NwkState == DEV_END_DEVICE) )
//  314         {
//  315             // Start sending the periodic message in a regular interval.
//  316             HalLedSet(HAL_LED_1, HAL_LED_MODE_ON);
//  317             
//  318             if(SampleApp_NwkState != DEV_ZB_COORD)
//  319               SerialApp_DeviceConnect();              
//  320         }
//  321         else
//  322         {
//  323           // Device is no longer in the network
//  324         }
//  325         break;
//  326 
//  327       default:
//  328         break;
//  329       }
//  330 
//  331       osal_msg_deallocate( (uint8 *)MSGpkt );
//  332     }
//  333 
//  334     return ( events ^ SYS_EVENT_MSG );
//  335   }
//  336 
//  337   if ( events & SERIALAPP_SEND_EVT )
        MOV     A,R6
        MOV     C,0xE0 /* A   */.0
        JNC     ??SerialApp_ProcessEvent_1
//  338   {
//  339     SerialApp_Send();
        ; Setup parameters for call to function SerialApp_Send
        LCALL   ??SerialApp_Send?relay
//  340     return ( events ^ SERIALAPP_SEND_EVT );
        MOV     A,R6
        XRL     A,#0x1
??SerialApp_ProcessEvent_2:
        MOV     R2,A
        MOV     A,R7
??SerialApp_ProcessEvent_3:
        MOV     R3,A
        LJMP    ??SerialApp_ProcessEvent_4 & 0xFFFF
//  341   }
??SerialApp_ProcessEvent_5:
        INC     DPTR
        MOVX    A,@DPTR
        MOV     DPTR,#SampleApp_NwkState
        MOVX    @DPTR,A
        XRL     A,#0x9
        JZ      ??SerialApp_ProcessEvent_6
        MOVX    A,@DPTR
        XRL     A,#0x7
        JZ      ??SerialApp_ProcessEvent_6
        MOVX    A,@DPTR
        XRL     A,#0x6
        JNZ     ??SerialApp_ProcessEvent_7
??SerialApp_ProcessEvent_6:
        ; Setup parameters for call to function HalLedSet
        MOV     R2,#0x1
        MOV     R1,#0x1
        LCALL   ??HalLedSet?relay
??SerialApp_ProcessEvent_7:
        ; Setup parameters for call to function osal_msg_deallocate
        MOV     R2,?V0 + 0
        MOV     R3,?V0 + 1
        LCALL   ??osal_msg_deallocate?relay
??SerialApp_ProcessEvent_0:
        ; Setup parameters for call to function osal_msg_receive
        MOV     DPTR,#SerialApp_TaskID
        MOVX    A,@DPTR
        MOV     R1,A
        LCALL   ??osal_msg_receive?relay
        MOV     ?V0 + 0,R2
        MOV     ?V0 + 1,R3
        MOV     A,R2
        ORL     A,?V0 + 1
        JZ      ??SerialApp_ProcessEvent_8
        MOV     DPL,R2
        MOV     DPH,R3
        MOVX    A,@DPTR
        ADD     A,#-0x1a
        JZ      ??SerialApp_ProcessEvent_9
        ADD     A,#0x49
        JZ      ??SerialApp_ProcessEvent_5
        SJMP    ??SerialApp_ProcessEvent_7
??SerialApp_ProcessEvent_9:
        ; Setup parameters for call to function SerialApp_ProcessMSGCmd
        LCALL   ??SerialApp_ProcessMSGCmd?relay
        SJMP    ??SerialApp_ProcessEvent_7
??SerialApp_ProcessEvent_8:
        MOV     A,R6
        MOV     R2,A
        MOV     A,R7
        XRL     A,#0x80
        SJMP    ??SerialApp_ProcessEvent_3
//  342 
//  343   if ( events & SERIALAPP_RESP_EVT )
??SerialApp_ProcessEvent_1:
        ANL     A,#0x2
        JZ      ??SerialApp_ProcessEvent_10
//  344   {
//  345     SerialApp_Resp();
        ; Setup parameters for call to function AF_DataRequest
        MOV     ?V0 + 0,#0x1e
        MOV     R0,#?V0 + 0
        LCALL   ?PUSH_XSTACK_I_ONE
        CFI CFA_XSP16 add(XSP16, 13)
        MOV     ?V0 + 0,#SerialApp_MsgID & 0xff
        MOV     ?V0 + 1,#(SerialApp_MsgID >> 8) & 0xff
        MOV     R0,#?V0 + 0
        LCALL   ?PUSH_XSTACK_I_TWO
        CFI CFA_XSP16 add(XSP16, 15)
        MOV     ?V0 + 0,#SerialApp_RspBuf & 0xff
        MOV     ?V0 + 1,#(SerialApp_RspBuf >> 8) & 0xff
        MOV     R0,#?V0 + 0
        LCALL   ?PUSH_XSTACK_I_TWO
        CFI CFA_XSP16 add(XSP16, 17)
        MOV     ?V0 + 0,#0x4
        MOV     ?V0 + 1,#0x0
        MOV     R0,#?V0 + 0
        LCALL   ?PUSH_XSTACK_I_TWO
        CFI CFA_XSP16 add(XSP16, 19)
        MOV     ?V0 + 0,#0x2
        MOV     R0,#?V0 + 0
        LCALL   ?PUSH_XSTACK_I_TWO
        CFI CFA_XSP16 add(XSP16, 21)
        MOV     R1,#0x0
        MOV     R4,#SerialApp_epDesc & 0xff
        MOV     R5,#(SerialApp_epDesc >> 8) & 0xff
        MOV     R2,#SerialApp_RxAddr & 0xff
        MOV     R3,#(SerialApp_RxAddr >> 8) & 0xff
        LCALL   ??AF_DataRequest?relay
        MOV     A,#0x9
        LCALL   ?DEALLOC_XSTACK8
        CFI CFA_XSP16 add(XSP16, 12)
        MOV     A,R1
        JZ      ??CrossCallReturnLabel_4
        ; Setup parameters for call to function osal_set_event
        MOV     R2,#0x2
        LCALL   ?Subroutine4 & 0xFFFF
//  346     return ( events ^ SERIALAPP_RESP_EVT );
??CrossCallReturnLabel_4:
        MOV     A,R6
        XRL     A,#0x2
        LJMP    ??SerialApp_ProcessEvent_2 & 0xFFFF
//  347   }
//  348   if (events & SEND_UART){
??SerialApp_ProcessEvent_10:
        MOV     A,R6
        ANL     A,#0x4
        JZ      ??SerialApp_ProcessEvent_11
//  349     send_uart();
        MOV     DPTR,#cB + 411
        MOVX    A,@DPTR
        JZ      ??SerialApp_ProcessEvent_12
        INC     DPTR
        LCALL   ?Subroutine2 & 0xFFFF
??CrossCallReturnLabel_0:
        MOVX    A,@DPTR
        MOV     ?V0 + 0,A
        MOV     A,R0
        MOV     B,#0x28
        MUL     AB
        MOV     R0,A
        MOV     R1,B
        MOV     A,#cB & 0xff
        ADD     A,R0
        MOV     R2,A
        MOV     A,#(cB >> 8) & 0xff
        ADDC    A,R1
        MOV     R3,A
        MOV     DPTR,#cB + 412
        LCALL   ?Subroutine3 & 0xFFFF
??CrossCallReturnLabel_2:
        JNZ     ??SerialApp_ProcessEvent_13
        MOV     DPTR,#cB + 412
        CLR     A
        MOVX    @DPTR,A
??SerialApp_ProcessEvent_13:
        MOV     DPTR,#cB + 411
        MOVX    A,@DPTR
        DEC     A
        MOVX    @DPTR,A
        ; Setup parameters for call to function HalUARTWrite
        MOV     R4,?V0 + 0
        MOV     R5,#0x0
        MOV     R1,#0x0
        LCALL   ??HalUARTWrite?relay
//  350     return ( events );
??SerialApp_ProcessEvent_12:
        MOV     A,R6
        LJMP    ??SerialApp_ProcessEvent_2 & 0xFFFF
//  351   }
//  352   return ( 0 );  // Discard unknown events.
??SerialApp_ProcessEvent_11:
        MOV     R2,#0x0
        MOV     R3,#0x0
        CFI EndBlock cfiBlock2
??SerialApp_ProcessEvent_4:
        REQUIRE ?Subroutine1
        ; // Fall through to label ?Subroutine1
//  353 }

        RSEG BANKED_CODE:CODE:NOROOT(0)
?Subroutine1:
        CFI Block cfiBlock3 Using cfiCommon0
        CFI NoFunction
        CFI CFA_SP SP+0
        CFI CFA_XSP16 add(XSP16, 12)
        CFI VB load(1, XDATA, add(CFA_XSP16, literal(-11)))
        CFI DPL0 load(1, XDATA, add(CFA_XSP16, literal(-2)))
        CFI DPH0 load(1, XDATA, add(CFA_XSP16, literal(-1)))
        CFI R6 load(1, XDATA, add(CFA_XSP16, literal(-12)))
        CFI R7 load(1, XDATA, add(CFA_XSP16, literal(-6)))
        CFI V0 load(1, XDATA, add(CFA_XSP16, literal(-10)))
        CFI V1 load(1, XDATA, add(CFA_XSP16, literal(-9)))
        CFI V2 load(1, XDATA, add(CFA_XSP16, literal(-8)))
        CFI V3 load(1, XDATA, add(CFA_XSP16, literal(-7)))
        CFI ?BRET_EXT load(1, XDATA, add(CFA_XSP16, literal(-3)))
        CFI ?RET_HIGH load(1, XDATA, add(CFA_XSP16, literal(-4)))
        CFI ?RET_LOW load(1, XDATA, add(CFA_XSP16, literal(-5)))
        MOV     R7,#0x4
        LJMP    ?BANKED_LEAVE_XDATA
        CFI EndBlock cfiBlock3
//  354 
//  355 /*********************************************************************
//  356  * @fn      SerialApp_ProcessMSGCmd
//  357  *
//  358  * @brief   Data message processor callback. This function processes
//  359  *          any incoming data - probably from other devices. Based
//  360  *          on the cluster ID, perform the intended action.
//  361  *
//  362  * @param   pkt - pointer to the incoming message packet
//  363  *
//  364  * @return  TRUE if the 'pkt' parameter is being used and will be freed later,
//  365  *          FALSE otherwise.
//  366  */

        RSEG BANKED_CODE:CODE:NOROOT(0)
//  367 void SerialApp_ProcessMSGCmd( afIncomingMSGPacket_t *pkt )
SerialApp_ProcessMSGCmd:
        CFI Block cfiBlock4 Using cfiCommon0
        CFI Function SerialApp_ProcessMSGCmd
        CODE
//  368 {
        FUNCALL SerialApp_ProcessMSGCmd, osal_memcpy
        LOCFRAME ISTACK, 0, STACK
        LOCFRAME PSTACK, 0, STACK
        LOCFRAME XSTACK, 17, STACK
        LOCFRAME IOVERLAY, 0, STATIC
        LOCFRAME DOVERLAY, 0, STATIC
        ARGFRAME ISTACK, 0, STACK
        ARGFRAME PSTACK, 0, STACK
        ARGFRAME XSTACK, 17, STACK
        ARGFRAME IOVERLAY, 0, STATIC
        ARGFRAME DOVERLAY, 0, STATIC
        FUNCALL SerialApp_ProcessMSGCmd, osal_memcpy
        LOCFRAME ISTACK, 0, STACK
        LOCFRAME PSTACK, 0, STACK
        LOCFRAME XSTACK, 17, STACK
        LOCFRAME IOVERLAY, 0, STATIC
        LOCFRAME DOVERLAY, 0, STATIC
        ARGFRAME ISTACK, 0, STACK
        ARGFRAME PSTACK, 0, STACK
        ARGFRAME XSTACK, 17, STACK
        ARGFRAME IOVERLAY, 0, STATIC
        ARGFRAME DOVERLAY, 0, STATIC
        FUNCALL SerialApp_ProcessMSGCmd, osal_set_event
        LOCFRAME ISTACK, 0, STACK
        LOCFRAME PSTACK, 0, STACK
        LOCFRAME XSTACK, 14, STACK
        LOCFRAME IOVERLAY, 0, STATIC
        LOCFRAME DOVERLAY, 0, STATIC
        ARGFRAME ISTACK, 0, STACK
        ARGFRAME PSTACK, 0, STACK
        ARGFRAME XSTACK, 14, STACK
        ARGFRAME IOVERLAY, 0, STATIC
        ARGFRAME DOVERLAY, 0, STATIC
        FUNCALL SerialApp_ProcessMSGCmd, osal_stop_timerEx
        LOCFRAME ISTACK, 0, STACK
        LOCFRAME PSTACK, 0, STACK
        LOCFRAME XSTACK, 14, STACK
        LOCFRAME IOVERLAY, 0, STATIC
        LOCFRAME DOVERLAY, 0, STATIC
        ARGFRAME ISTACK, 0, STACK
        ARGFRAME PSTACK, 0, STACK
        ARGFRAME XSTACK, 14, STACK
        ARGFRAME IOVERLAY, 0, STATIC
        ARGFRAME DOVERLAY, 0, STATIC
        FUNCALL SerialApp_ProcessMSGCmd, osal_start_timerEx
        LOCFRAME ISTACK, 0, STACK
        LOCFRAME PSTACK, 0, STACK
        LOCFRAME XSTACK, 14, STACK
        LOCFRAME IOVERLAY, 0, STATIC
        LOCFRAME DOVERLAY, 0, STATIC
        ARGFRAME ISTACK, 0, STACK
        ARGFRAME PSTACK, 0, STACK
        ARGFRAME XSTACK, 14, STACK
        ARGFRAME IOVERLAY, 0, STATIC
        ARGFRAME DOVERLAY, 0, STATIC
        FUNCALL SerialApp_ProcessMSGCmd, HalLedSet
        LOCFRAME ISTACK, 0, STACK
        LOCFRAME PSTACK, 0, STACK
        LOCFRAME XSTACK, 14, STACK
        LOCFRAME IOVERLAY, 0, STATIC
        LOCFRAME DOVERLAY, 0, STATIC
        ARGFRAME ISTACK, 0, STACK
        ARGFRAME PSTACK, 0, STACK
        ARGFRAME XSTACK, 14, STACK
        ARGFRAME IOVERLAY, 0, STATIC
        ARGFRAME DOVERLAY, 0, STATIC
        FUNCALL SerialApp_ProcessMSGCmd, SerialApp_ConnectReqProcess
        LOCFRAME ISTACK, 0, STACK
        LOCFRAME PSTACK, 0, STACK
        LOCFRAME XSTACK, 14, STACK
        LOCFRAME IOVERLAY, 0, STATIC
        LOCFRAME DOVERLAY, 0, STATIC
        ARGFRAME ISTACK, 0, STACK
        ARGFRAME PSTACK, 0, STACK
        ARGFRAME XSTACK, 14, STACK
        ARGFRAME IOVERLAY, 0, STATIC
        ARGFRAME DOVERLAY, 0, STATIC
        MOV     A,#-0xe
        LCALL   ?BANKED_ENTER_XDATA
        CFI DPH0 load(1, XDATA, add(CFA_XSP16, literal(-1)))
        CFI DPL0 load(1, XDATA, add(CFA_XSP16, literal(-2)))
        CFI ?BRET_EXT load(1, XDATA, add(CFA_XSP16, literal(-3)))
        CFI ?RET_HIGH load(1, XDATA, add(CFA_XSP16, literal(-4)))
        CFI ?RET_LOW load(1, XDATA, add(CFA_XSP16, literal(-5)))
        CFI R7 load(1, XDATA, add(CFA_XSP16, literal(-6)))
        CFI V5 load(1, XDATA, add(CFA_XSP16, literal(-7)))
        CFI V4 load(1, XDATA, add(CFA_XSP16, literal(-8)))
        CFI V3 load(1, XDATA, add(CFA_XSP16, literal(-9)))
        CFI V2 load(1, XDATA, add(CFA_XSP16, literal(-10)))
        CFI V1 load(1, XDATA, add(CFA_XSP16, literal(-11)))
        CFI V0 load(1, XDATA, add(CFA_XSP16, literal(-12)))
        CFI VB load(1, XDATA, add(CFA_XSP16, literal(-13)))
        CFI R6 load(1, XDATA, add(CFA_XSP16, literal(-14)))
        CFI CFA_SP SP+0
        CFI CFA_XSP16 add(XSP16, 14)
        ; Saved register size: 14
        ; Auto size: 0
        MOV     A,R2
        MOV     R6,A
        MOV     A,R3
        MOV     R7,A
//  369   char buf[30]={0};
//  370   uint8 stat;
//  371   uint8 seqnb;
//  372   uint8 delay;
//  373 
//  374   switch ( pkt->clusterId )
        MOV     A,R6
        ADD     A,#0x21
        MOV     ?V0 + 4,A
        MOV     A,R7
        ADDC    A,#0x0
        MOV     ?V0 + 5,A
        MOV     DPL,R6
        MOV     DPH,R7
        INC     DPTR
        INC     DPTR
        INC     DPTR
        INC     DPTR
        MOVX    A,@DPTR
        MOV     ?V0 + 0,A
        INC     DPTR
        MOVX    A,@DPTR
        MOV     ?V0 + 1,A
        MOV     R0,#?V0 + 0
        LCALL   ?US_SWITCH_DENSE
`?<Jumptable for SerialApp_ProcessMSGCmd>_0`:
        DATA
        DATA16
        DATA
        DATA16
        DW        1
        DATA
        DATA8
        DATA
        DATA8
        DB        2
        DATA
        DATA16
        DATA
        DATA16
        DW        ??SerialApp_ProcessMSGCmd_0
        DATA
        DATA16
        DATA
        DATA16
        DW        ??SerialApp_ProcessMSGCmd_1
        DATA
        DATA16
        DATA
        DATA16
        DW        ??SerialApp_ProcessMSGCmd_2
        DATA
        DATA16
        DATA
        DATA16
        DW        ??SerialApp_ProcessMSGCmd_3
        CODE
//  375   {
//  376   // A message with a serial data block to be transmitted on the serial port.
//  377   case SERIALAPP_CLUSTERID1: //
//  378     // Store the address for sending and retrying.
//  379     osal_memcpy(&SerialApp_RxAddr, &(pkt->srcAddr), sizeof( afAddrType_t ));
??SerialApp_ProcessMSGCmd_1:
        ; Setup parameters for call to function osal_memcpy
        MOV     A,R6
        ADD     A,#0x6
        MOV     ?V0 + 0,A
        MOV     A,R7
        ADDC    A,#0x0
        MOV     ?V0 + 1,A
        MOV     ?V0 + 2,#0x0
        MOV     R0,#?V0 + 0
        LCALL   ?PUSH_XSTACK_I_THREE
        CFI CFA_XSP16 add(XSP16, 17)
        MOV     R4,#0xc
        MOV     R5,#0x0
        MOV     R2,#SerialApp_RxAddr & 0xff
        MOV     R3,#(SerialApp_RxAddr >> 8) & 0xff
        LCALL   ??osal_memcpy?relay
        MOV     A,#0x3
        LCALL   ?DEALLOC_XSTACK8
        CFI CFA_XSP16 add(XSP16, 14)
//  380 
//  381     seqnb = pkt->cmd.Data[0];
//  382     //sprintf(buf,"segnb= %d\n",seqnb);
//  383     //HalUARTWrite( SERIAL_APP_PORT, (uint8*)buf, strlen(buf));
//  384     // Keep message if not a repeat packet
//  385     pushElement(pkt->cmd.Data+1, (pkt->cmd.DataLength-1));
        MOV     A,R6
        ADD     A,#0x1f
        MOV     DPL,A
        MOV     A,R7
        ADDC    A,#0x0
        MOV     DPH,A
        MOVX    A,@DPTR
        DEC     A
        MOV     R6,A
        MOV     DPTR,#cB + 411
        MOVX    A,@DPTR
        MOV     R0,A
        MOV     DPTR,#cB + 410
        MOVX    A,@DPTR
        XRL     A,R0
        JNZ     $+5
        LJMP    ??SerialApp_ProcessMSGCmd_0 & 0xFFFF
        ; Setup parameters for call to function osal_memcpy
        MOV     DPL,?V0 + 4
        MOV     DPH,?V0 + 5
        MOVX    A,@DPTR
        ADD     A,#0x1
        MOV     ?V0 + 0,A
        INC     DPTR
        MOVX    A,@DPTR
        ADDC    A,#0x0
        MOV     ?V0 + 1,A
        MOV     R0,#?V0 + 0
        LCALL   ?PUSH_XSTACK_I_THREE
        CFI CFA_XSP16 add(XSP16, 17)
        MOV     ?V0 + 0,R6
        MOV     R4,?V0 + 0
        MOV     R5,#0x0
        MOV     DPTR,#cB + 413
        MOVX    A,@DPTR
        MOV     B,#0x28
        MUL     AB
        MOV     R0,A
        MOV     R1,B
        MOV     A,#cB & 0xff
        ADD     A,R0
        MOV     R2,A
        MOV     A,#(cB >> 8) & 0xff
        ADDC    A,R1
        MOV     R3,A
        LCALL   ??osal_memcpy?relay
        MOV     A,#0x3
        LCALL   ?DEALLOC_XSTACK8
        CFI CFA_XSP16 add(XSP16, 14)
        MOV     DPTR,#cB + 413
        LCALL   ?Subroutine2 & 0xFFFF
??CrossCallReturnLabel_1:
        MOV     A,R6
        MOVX    @DPTR,A
        MOV     DPTR,#cB + 413
        LCALL   ?Subroutine3 & 0xFFFF
??CrossCallReturnLabel_3:
        JNZ     ??SerialApp_ProcessMSGCmd_4
        MOV     DPTR,#cB + 413
        CLR     A
        MOVX    @DPTR,A
??SerialApp_ProcessMSGCmd_4:
        MOV     DPTR,#cB + 411
        MOVX    A,@DPTR
        INC     A
        MOVX    @DPTR,A
        ; Setup parameters for call to function osal_set_event
        MOV     R2,#0x4
        LCALL   ?Subroutine4 & 0xFFFF
??CrossCallReturnLabel_6:
        SJMP    ??SerialApp_ProcessMSGCmd_0
//  386     //SerialApp_RxSeq = seqnb;
//  387     //stat = OTA_SUCCESS;
//  388     // Select approproiate OTA flow-control delay.
//  389     //delay = (stat == OTA_SER_BUSY) ? SERIALAPP_NAK_DELAY : SERIALAPP_ACK_DELAY;
//  390 
//  391     // Build & send OTA response message.
//  392     //SerialApp_RspBuf[0] = stat;
//  393     //SerialApp_RspBuf[1] = seqnb;
//  394     //SerialApp_RspBuf[2] = LO_UINT16( delay );
//  395     //SerialApp_RspBuf[3] = HI_UINT16( delay );
//  396     //SerialApp_Resp();
//  397     //osal_set_event( SerialApp_TaskID, SERIALAPP_RESP_EVT ); //
//  398     //osal_stop_timerEx(SerialApp_TaskID, SERIALAPP_RESP_EVT);
//  399     break;
//  400 
//  401   // A response to a received serial data block.   // 
//  402   case SERIALAPP_CLUSTERID2:
//  403     if ((pkt->cmd.Data[1] == SerialApp_TxSeq) &&
//  404        ((pkt->cmd.Data[0] == OTA_SUCCESS) || (pkt->cmd.Data[0] == OTA_DUP_MSG)))
??SerialApp_ProcessMSGCmd_2:
        MOV     DPL,?V0 + 4
        MOV     DPH,?V0 + 5
        MOVX    A,@DPTR
        MOV     R0,A
        INC     DPTR
        MOVX    A,@DPTR
        MOV     R1,A
        MOV     DPL,R0
        MOV     DPH,R1
        INC     DPTR
        MOVX    A,@DPTR
        MOV     R2,A
        MOV     DPTR,#SerialApp_TxSeq
        MOVX    A,@DPTR
        XRL     A,R2
        JNZ     ??SerialApp_ProcessMSGCmd_5
        MOV     DPL,R0
        MOV     DPH,R1
        MOVX    A,@DPTR
        JZ      ??SerialApp_ProcessMSGCmd_6
        XRL     A,#0x1
        JNZ     ??SerialApp_ProcessMSGCmd_5
//  405     {
//  406       SerialApp_TxLen = 0;
??SerialApp_ProcessMSGCmd_6:
        MOV     DPTR,#SerialApp_TxLen
        CLR     A
        MOVX    @DPTR,A
//  407       osal_stop_timerEx(SerialApp_TaskID, SERIALAPP_SEND_EVT);
        ; Setup parameters for call to function osal_stop_timerEx
        MOV     R2,#0x1
        MOV     R3,A
        MOV     DPTR,#SerialApp_TaskID
        MOVX    A,@DPTR
        MOV     R1,A
        LCALL   ??osal_stop_timerEx?relay
        SJMP    ??SerialApp_ProcessMSGCmd_7
//  408     }
//  409     else
//  410     {
//  411       // Re-start timeout according to delay sent from other device.
//  412       delay = BUILD_UINT16( pkt->cmd.Data[2], pkt->cmd.Data[3] );
//  413       osal_start_timerEx( SerialApp_TaskID, SERIALAPP_SEND_EVT, delay );
??SerialApp_ProcessMSGCmd_5:
        ; Setup parameters for call to function osal_start_timerEx
        MOV     DPL,R0
        MOV     DPH,R1
        INC     DPTR
        INC     DPTR
        MOVX    A,@DPTR
        MOV     R4,A
        MOV     R5,#0x0
        MOV     R2,#0x1
        MOV     R3,#0x0
        MOV     DPTR,#SerialApp_TaskID
        MOVX    A,@DPTR
        MOV     R1,A
        LCALL   ??osal_start_timerEx?relay
//  414     }
//  415     HalLedSet(HAL_LED_2, HAL_LED_MODE_ON);
??SerialApp_ProcessMSGCmd_7:
        ; Setup parameters for call to function HalLedSet
        MOV     R2,#0x1
        MOV     R1,#0x2
        LCALL   ??HalLedSet?relay
//  416     break;
        SJMP    ??SerialApp_ProcessMSGCmd_0
//  417 
//  418     case SERIALAPP_CONNECTREQ_CLUSTER:
//  419       SerialApp_ConnectReqProcess((uint8*)pkt->cmd.Data, pkt->srcAddr.endPoint);
??SerialApp_ProcessMSGCmd_3:
        ; Setup parameters for call to function SerialApp_ConnectReqProcess
        MOV     A,R6
        ADD     A,#0xf
        MOV     DPL,A
        MOV     A,R7
        ADDC    A,#0x0
        MOV     DPH,A
        MOVX    A,@DPTR
        MOV     R1,A
        MOV     DPL,?V0 + 4
        MOV     DPH,?V0 + 5
        MOVX    A,@DPTR
        MOV     R2,A
        INC     DPTR
        MOVX    A,@DPTR
        MOV     R3,A
        LCALL   ??SerialApp_ConnectReqProcess?relay
//  420       
//  421     case SERIALAPP_CONNECTRSP_CLUSTER:
//  422       SerialApp_DeviceConnectRsp((uint8*)pkt->cmd.Data);
//  423       
//  424     default:
//  425       break;
//  426   }
//  427 }
??SerialApp_ProcessMSGCmd_0:
        MOV     R7,#0x6
        LJMP    ?BANKED_LEAVE_XDATA
        CFI EndBlock cfiBlock4

        RSEG BANKED_CODE:CODE:NOROOT(0)
?Subroutine4:
        CFI Block cfiCond5 Using cfiCommon0
        CFI NoFunction
        CFI Conditional ??CrossCallReturnLabel_4
        CFI R6 load(1, XDATA, add(CFA_XSP16, literal(-12)))
        CFI VB load(1, XDATA, add(CFA_XSP16, literal(-11)))
        CFI V0 load(1, XDATA, add(CFA_XSP16, literal(-10)))
        CFI V1 load(1, XDATA, add(CFA_XSP16, literal(-9)))
        CFI V2 load(1, XDATA, add(CFA_XSP16, literal(-8)))
        CFI V3 load(1, XDATA, add(CFA_XSP16, literal(-7)))
        CFI R7 load(1, XDATA, add(CFA_XSP16, literal(-6)))
        CFI ?RET_LOW load(1, XDATA, add(CFA_XSP16, literal(-5)))
        CFI ?RET_HIGH load(1, XDATA, add(CFA_XSP16, literal(-4)))
        CFI ?BRET_EXT load(1, XDATA, add(CFA_XSP16, literal(-3)))
        CFI DPL0 load(1, XDATA, add(CFA_XSP16, literal(-2)))
        CFI DPH0 load(1, XDATA, add(CFA_XSP16, literal(-1)))
        CFI CFA_SP SP+0
        CFI CFA_XSP16 add(XSP16, 12)
        CFI Block cfiCond6 Using cfiCommon0
        CFI (cfiCond6) NoFunction
        CFI (cfiCond6) Conditional ??CrossCallReturnLabel_6
        CFI (cfiCond6) R6 load(1, XDATA, add(CFA_XSP16, literal(-14)))
        CFI (cfiCond6) VB load(1, XDATA, add(CFA_XSP16, literal(-13)))
        CFI (cfiCond6) V0 load(1, XDATA, add(CFA_XSP16, literal(-12)))
        CFI (cfiCond6) V1 load(1, XDATA, add(CFA_XSP16, literal(-11)))
        CFI (cfiCond6) V2 load(1, XDATA, add(CFA_XSP16, literal(-10)))
        CFI (cfiCond6) V3 load(1, XDATA, add(CFA_XSP16, literal(-9)))
        CFI (cfiCond6) V4 load(1, XDATA, add(CFA_XSP16, literal(-8)))
        CFI (cfiCond6) V5 load(1, XDATA, add(CFA_XSP16, literal(-7)))
        CFI (cfiCond6) R7 load(1, XDATA, add(CFA_XSP16, literal(-6)))
        CFI (cfiCond6) ?RET_LOW load(1, XDATA, add(CFA_XSP16, literal(-5)))
        CFI (cfiCond6) ?RET_HIGH load(1, XDATA, add(CFA_XSP16, literal(-4)))
        CFI (cfiCond6) ?BRET_EXT load(1, XDATA, add(CFA_XSP16, literal(-3)))
        CFI (cfiCond6) DPL0 load(1, XDATA, add(CFA_XSP16, literal(-2)))
        CFI (cfiCond6) DPH0 load(1, XDATA, add(CFA_XSP16, literal(-1)))
        CFI (cfiCond6) CFA_SP SP+0
        CFI (cfiCond6) CFA_XSP16 add(XSP16, 14)
        CFI Block cfiCond7 Using cfiCommon0
        CFI (cfiCond7) NoFunction
        CFI (cfiCond7) Conditional ??CrossCallReturnLabel_5
        CFI (cfiCond7) R6 load(1, XDATA, add(CFA_XSP16, literal(-10)))
        CFI (cfiCond7) VB load(1, XDATA, add(CFA_XSP16, literal(-9)))
        CFI (cfiCond7) V0 load(1, XDATA, add(CFA_XSP16, literal(-8)))
        CFI (cfiCond7) V1 load(1, XDATA, add(CFA_XSP16, literal(-7)))
        CFI (cfiCond7) R7 load(1, XDATA, add(CFA_XSP16, literal(-6)))
        CFI (cfiCond7) ?RET_LOW load(1, XDATA, add(CFA_XSP16, literal(-5)))
        CFI (cfiCond7) ?RET_HIGH load(1, XDATA, add(CFA_XSP16, literal(-4)))
        CFI (cfiCond7) ?BRET_EXT load(1, XDATA, add(CFA_XSP16, literal(-3)))
        CFI (cfiCond7) DPL0 load(1, XDATA, add(CFA_XSP16, literal(-2)))
        CFI (cfiCond7) DPH0 load(1, XDATA, add(CFA_XSP16, literal(-1)))
        CFI (cfiCond7) CFA_SP SP+0
        CFI (cfiCond7) CFA_XSP16 add(XSP16, 10)
        CFI Block cfiPicker8 Using cfiCommon1
        CFI (cfiPicker8) NoFunction
        CFI (cfiPicker8) Picker
        MOV     R3,#0x0
        MOV     DPTR,#SerialApp_TaskID
        MOVX    A,@DPTR
        MOV     R1,A
        LCALL   ??osal_set_event?relay
        RET
        CFI EndBlock cfiCond5
        CFI EndBlock cfiCond6
        CFI EndBlock cfiCond7
        CFI EndBlock cfiPicker8

        RSEG BANKED_CODE:CODE:NOROOT(0)
?Subroutine3:
        CFI Block cfiCond9 Using cfiCommon0
        CFI NoFunction
        CFI Conditional ??CrossCallReturnLabel_2
        CFI R6 load(1, XDATA, add(CFA_XSP16, literal(-12)))
        CFI VB load(1, XDATA, add(CFA_XSP16, literal(-11)))
        CFI V0 load(1, XDATA, add(CFA_XSP16, literal(-10)))
        CFI V1 load(1, XDATA, add(CFA_XSP16, literal(-9)))
        CFI V2 load(1, XDATA, add(CFA_XSP16, literal(-8)))
        CFI V3 load(1, XDATA, add(CFA_XSP16, literal(-7)))
        CFI R7 load(1, XDATA, add(CFA_XSP16, literal(-6)))
        CFI ?RET_LOW load(1, XDATA, add(CFA_XSP16, literal(-5)))
        CFI ?RET_HIGH load(1, XDATA, add(CFA_XSP16, literal(-4)))
        CFI ?BRET_EXT load(1, XDATA, add(CFA_XSP16, literal(-3)))
        CFI DPL0 load(1, XDATA, add(CFA_XSP16, literal(-2)))
        CFI DPH0 load(1, XDATA, add(CFA_XSP16, literal(-1)))
        CFI CFA_SP SP+0
        CFI CFA_XSP16 add(XSP16, 12)
        CFI Block cfiCond10 Using cfiCommon0
        CFI (cfiCond10) NoFunction
        CFI (cfiCond10) Conditional ??CrossCallReturnLabel_3
        CFI (cfiCond10) R6 load(1, XDATA, add(CFA_XSP16, literal(-14)))
        CFI (cfiCond10) VB load(1, XDATA, add(CFA_XSP16, literal(-13)))
        CFI (cfiCond10) V0 load(1, XDATA, add(CFA_XSP16, literal(-12)))
        CFI (cfiCond10) V1 load(1, XDATA, add(CFA_XSP16, literal(-11)))
        CFI (cfiCond10) V2 load(1, XDATA, add(CFA_XSP16, literal(-10)))
        CFI (cfiCond10) V3 load(1, XDATA, add(CFA_XSP16, literal(-9)))
        CFI (cfiCond10) V4 load(1, XDATA, add(CFA_XSP16, literal(-8)))
        CFI (cfiCond10) V5 load(1, XDATA, add(CFA_XSP16, literal(-7)))
        CFI (cfiCond10) R7 load(1, XDATA, add(CFA_XSP16, literal(-6)))
        CFI (cfiCond10) ?RET_LOW load(1, XDATA, add(CFA_XSP16, literal(-5)))
        CFI (cfiCond10) ?RET_HIGH load(1, XDATA, add(CFA_XSP16, literal(-4)))
        CFI (cfiCond10) ?BRET_EXT load(1, XDATA, add(CFA_XSP16, literal(-3)))
        CFI (cfiCond10) DPL0 load(1, XDATA, add(CFA_XSP16, literal(-2)))
        CFI (cfiCond10) DPH0 load(1, XDATA, add(CFA_XSP16, literal(-1)))
        CFI (cfiCond10) CFA_SP SP+0
        CFI (cfiCond10) CFA_XSP16 add(XSP16, 14)
        CFI Block cfiPicker11 Using cfiCommon1
        CFI (cfiPicker11) NoFunction
        CFI (cfiPicker11) Picker
        MOVX    A,@DPTR
        INC     A
        MOVX    @DPTR,A
        MOV     R0,A
        MOV     DPTR,#cB + 410
        MOVX    A,@DPTR
        XRL     A,R0
        RET
        CFI EndBlock cfiCond9
        CFI EndBlock cfiCond10
        CFI EndBlock cfiPicker11

        RSEG BANKED_CODE:CODE:NOROOT(0)
?Subroutine2:
        CFI Block cfiCond12 Using cfiCommon0
        CFI NoFunction
        CFI Conditional ??CrossCallReturnLabel_0
        CFI R6 load(1, XDATA, add(CFA_XSP16, literal(-12)))
        CFI VB load(1, XDATA, add(CFA_XSP16, literal(-11)))
        CFI V0 load(1, XDATA, add(CFA_XSP16, literal(-10)))
        CFI V1 load(1, XDATA, add(CFA_XSP16, literal(-9)))
        CFI V2 load(1, XDATA, add(CFA_XSP16, literal(-8)))
        CFI V3 load(1, XDATA, add(CFA_XSP16, literal(-7)))
        CFI R7 load(1, XDATA, add(CFA_XSP16, literal(-6)))
        CFI ?RET_LOW load(1, XDATA, add(CFA_XSP16, literal(-5)))
        CFI ?RET_HIGH load(1, XDATA, add(CFA_XSP16, literal(-4)))
        CFI ?BRET_EXT load(1, XDATA, add(CFA_XSP16, literal(-3)))
        CFI DPL0 load(1, XDATA, add(CFA_XSP16, literal(-2)))
        CFI DPH0 load(1, XDATA, add(CFA_XSP16, literal(-1)))
        CFI CFA_SP SP+0
        CFI CFA_XSP16 add(XSP16, 12)
        CFI Block cfiCond13 Using cfiCommon0
        CFI (cfiCond13) NoFunction
        CFI (cfiCond13) Conditional ??CrossCallReturnLabel_1
        CFI (cfiCond13) R6 load(1, XDATA, add(CFA_XSP16, literal(-14)))
        CFI (cfiCond13) VB load(1, XDATA, add(CFA_XSP16, literal(-13)))
        CFI (cfiCond13) V0 load(1, XDATA, add(CFA_XSP16, literal(-12)))
        CFI (cfiCond13) V1 load(1, XDATA, add(CFA_XSP16, literal(-11)))
        CFI (cfiCond13) V2 load(1, XDATA, add(CFA_XSP16, literal(-10)))
        CFI (cfiCond13) V3 load(1, XDATA, add(CFA_XSP16, literal(-9)))
        CFI (cfiCond13) V4 load(1, XDATA, add(CFA_XSP16, literal(-8)))
        CFI (cfiCond13) V5 load(1, XDATA, add(CFA_XSP16, literal(-7)))
        CFI (cfiCond13) R7 load(1, XDATA, add(CFA_XSP16, literal(-6)))
        CFI (cfiCond13) ?RET_LOW load(1, XDATA, add(CFA_XSP16, literal(-5)))
        CFI (cfiCond13) ?RET_HIGH load(1, XDATA, add(CFA_XSP16, literal(-4)))
        CFI (cfiCond13) ?BRET_EXT load(1, XDATA, add(CFA_XSP16, literal(-3)))
        CFI (cfiCond13) DPL0 load(1, XDATA, add(CFA_XSP16, literal(-2)))
        CFI (cfiCond13) DPH0 load(1, XDATA, add(CFA_XSP16, literal(-1)))
        CFI (cfiCond13) CFA_SP SP+0
        CFI (cfiCond13) CFA_XSP16 add(XSP16, 14)
        CFI Block cfiPicker14 Using cfiCommon1
        CFI (cfiPicker14) NoFunction
        CFI (cfiPicker14) Picker
        MOVX    A,@DPTR
        MOV     R0,A
        MOV     A,#(cB + 144) & 0xff
        ADD     A,R0
        MOV     DPL,A
        MOV     A,#((cB + 400) >> 8) & 0xff
        ADDC    A,#0x0
        MOV     DPH,A
        RET
        CFI EndBlock cfiCond12
        CFI EndBlock cfiCond13
        CFI EndBlock cfiPicker14
//  428 
//  429 /*********************************************************************
//  430  * @fn      SerialApp_Send
//  431  *
//  432  * @brief   Send data OTA.
//  433  *
//  434  * @param   none
//  435  *
//  436  * @return  none
//  437  */

        RSEG BANKED_CODE:CODE:NOROOT(0)
//  438 static void SerialApp_Send(void)
SerialApp_Send:
        CFI Block cfiBlock15 Using cfiCommon0
        CFI Function SerialApp_Send
        CODE
//  439 {
        FUNCALL SerialApp_Send, HalUARTRead
        LOCFRAME ISTACK, 0, STACK
        LOCFRAME PSTACK, 0, STACK
        LOCFRAME XSTACK, 10, STACK
        LOCFRAME IOVERLAY, 0, STATIC
        LOCFRAME DOVERLAY, 0, STATIC
        ARGFRAME ISTACK, 0, STACK
        ARGFRAME PSTACK, 0, STACK
        ARGFRAME XSTACK, 10, STACK
        ARGFRAME IOVERLAY, 0, STATIC
        ARGFRAME DOVERLAY, 0, STATIC
        FUNCALL SerialApp_Send, AF_DataRequest
        LOCFRAME ISTACK, 0, STACK
        LOCFRAME PSTACK, 0, STACK
        LOCFRAME XSTACK, 19, STACK
        LOCFRAME IOVERLAY, 0, STATIC
        LOCFRAME DOVERLAY, 0, STATIC
        ARGFRAME ISTACK, 0, STACK
        ARGFRAME PSTACK, 0, STACK
        ARGFRAME XSTACK, 19, STACK
        ARGFRAME IOVERLAY, 0, STATIC
        ARGFRAME DOVERLAY, 0, STATIC
        FUNCALL SerialApp_Send, osal_set_event
        LOCFRAME ISTACK, 0, STACK
        LOCFRAME PSTACK, 0, STACK
        LOCFRAME XSTACK, 10, STACK
        LOCFRAME IOVERLAY, 0, STATIC
        LOCFRAME DOVERLAY, 0, STATIC
        ARGFRAME ISTACK, 0, STACK
        ARGFRAME PSTACK, 0, STACK
        ARGFRAME XSTACK, 10, STACK
        ARGFRAME IOVERLAY, 0, STATIC
        ARGFRAME DOVERLAY, 0, STATIC
        FUNCALL SerialApp_Send, HalLedSet
        LOCFRAME ISTACK, 0, STACK
        LOCFRAME PSTACK, 0, STACK
        LOCFRAME XSTACK, 10, STACK
        LOCFRAME IOVERLAY, 0, STATIC
        LOCFRAME DOVERLAY, 0, STATIC
        ARGFRAME ISTACK, 0, STACK
        ARGFRAME PSTACK, 0, STACK
        ARGFRAME XSTACK, 10, STACK
        ARGFRAME IOVERLAY, 0, STATIC
        ARGFRAME DOVERLAY, 0, STATIC
        MOV     A,#-0xa
        LCALL   ?BANKED_ENTER_XDATA
        CFI DPH0 load(1, XDATA, add(CFA_XSP16, literal(-1)))
        CFI DPL0 load(1, XDATA, add(CFA_XSP16, literal(-2)))
        CFI ?BRET_EXT load(1, XDATA, add(CFA_XSP16, literal(-3)))
        CFI ?RET_HIGH load(1, XDATA, add(CFA_XSP16, literal(-4)))
        CFI ?RET_LOW load(1, XDATA, add(CFA_XSP16, literal(-5)))
        CFI R7 load(1, XDATA, add(CFA_XSP16, literal(-6)))
        CFI V1 load(1, XDATA, add(CFA_XSP16, literal(-7)))
        CFI V0 load(1, XDATA, add(CFA_XSP16, literal(-8)))
        CFI VB load(1, XDATA, add(CFA_XSP16, literal(-9)))
        CFI R6 load(1, XDATA, add(CFA_XSP16, literal(-10)))
        CFI CFA_SP SP+0
        CFI CFA_XSP16 add(XSP16, 10)
        ; Saved register size: 10
        ; Auto size: 0
//  440 #if SERIAL_APP_LOOPBACK
//  441     if (SerialApp_TxLen < SERIAL_APP_TX_MAX)
//  442     {
//  443         SerialApp_TxLen += HalUARTRead(SERIAL_APP_PORT, SerialApp_TxBuf+SerialApp_TxLen+1,
//  444                                                       SERIAL_APP_TX_MAX-SerialApp_TxLen);
//  445     }
//  446   
//  447     if (SerialApp_TxLen)
//  448     {
//  449       (void)SerialApp_TxAddr;
//  450       if (HalUARTWrite(SERIAL_APP_PORT, SerialApp_TxBuf+1, SerialApp_TxLen))
//  451       {
//  452         SerialApp_TxLen = 0;
//  453       }
//  454       else
//  455       {
//  456         osal_set_event(SerialApp_TaskID, SERIALAPP_SEND_EVT);
//  457       }
//  458     }
//  459 #else
//  460     if (SerialApp_TxLen = HalUARTRead(SERIAL_APP_PORT, SerialApp_TxBuf+1, SERIAL_APP_TX_MAX))
        ; Setup parameters for call to function HalUARTRead
        MOV     R4,#0x50
        MOV     R5,#0x0
        MOV     R2,#(SerialApp_TxBuf + 1) & 0xff
        MOV     R3,#((SerialApp_TxBuf + 1) >> 8) & 0xff
        MOV     R1,#0x0
        LCALL   ??HalUARTRead?relay
        MOV     A,R2
        MOV     DPTR,#SerialApp_TxLen
        MOVX    @DPTR,A
        JZ      ??CrossCallReturnLabel_5
//  461     {
//  462       // Pre-pend sequence number to the Tx message.
//  463       SerialApp_TxBuf[0] = ++SerialApp_TxSeq;
        MOV     DPTR,#SerialApp_TxSeq
        MOVX    A,@DPTR
        INC     A
        MOVX    @DPTR,A
        MOV     DPTR,#SerialApp_TxBuf
        MOVX    @DPTR,A
//  464     }
//  465     if (SerialApp_TxLen)
//  466     {
//  467       if (afStatus_SUCCESS != AF_DataRequest(&SerialApp_TxAddr,
//  468                                              (endPointDesc_t *)&SerialApp_epDesc,
//  469                                               SERIALAPP_CLUSTERID1,
//  470                                               SerialApp_TxLen+1, SerialApp_TxBuf,
//  471                                               &SerialApp_MsgID, 0, AF_DEFAULT_RADIUS))
        ; Setup parameters for call to function AF_DataRequest
        MOV     ?V0 + 0,#0x1e
        MOV     R0,#?V0 + 0
        LCALL   ?PUSH_XSTACK_I_ONE
        CFI CFA_XSP16 add(XSP16, 11)
        MOV     ?V0 + 0,#SerialApp_MsgID & 0xff
        MOV     ?V0 + 1,#(SerialApp_MsgID >> 8) & 0xff
        MOV     R0,#?V0 + 0
        LCALL   ?PUSH_XSTACK_I_TWO
        CFI CFA_XSP16 add(XSP16, 13)
        MOV     ?V0 + 0,#SerialApp_TxBuf & 0xff
        MOV     ?V0 + 1,#(SerialApp_TxBuf >> 8) & 0xff
        MOV     R0,#?V0 + 0
        LCALL   ?PUSH_XSTACK_I_TWO
        CFI CFA_XSP16 add(XSP16, 15)
        MOV     DPTR,#SerialApp_TxLen
        MOVX    A,@DPTR
        ADD     A,#0x1
        MOV     ?V0 + 0,A
        CLR     A
        ADDC    A,#0x0
        MOV     ?V0 + 1,A
        MOV     R0,#?V0 + 0
        LCALL   ?PUSH_XSTACK_I_TWO
        CFI CFA_XSP16 add(XSP16, 17)
        MOV     ?V0 + 0,#0x1
        MOV     ?V0 + 1,#0x0
        MOV     R0,#?V0 + 0
        LCALL   ?PUSH_XSTACK_I_TWO
        CFI CFA_XSP16 add(XSP16, 19)
        MOV     R1,#0x0
        MOV     R4,#SerialApp_epDesc & 0xff
        MOV     R5,#(SerialApp_epDesc >> 8) & 0xff
        MOV     R2,#SerialApp_TxAddr & 0xff
        MOV     R3,#(SerialApp_TxAddr >> 8) & 0xff
        LCALL   ??AF_DataRequest?relay
        MOV     A,#0x9
        LCALL   ?DEALLOC_XSTACK8
        CFI CFA_XSP16 add(XSP16, 10)
        MOV     A,R1
        JZ      ??CrossCallReturnLabel_5
//  472       {
//  473         osal_set_event(SerialApp_TaskID, SERIALAPP_SEND_EVT);
        ; Setup parameters for call to function osal_set_event
        MOV     R2,#0x1
        LCALL   ?Subroutine4 & 0xFFFF
//  474       }
//  475     }
//  476     HalLedSet(HAL_LED_2, HAL_LED_MODE_OFF);
??CrossCallReturnLabel_5:
        ; Setup parameters for call to function HalLedSet
        MOV     R2,#0x0
        MOV     R1,#0x2
        LCALL   ??HalLedSet?relay
//  477 #endif
//  478 }
        MOV     R7,#0x2
        LJMP    ?BANKED_LEAVE_XDATA
        CFI EndBlock cfiBlock15
//  479 
//  480 /*********************************************************************
//  481  * @fn      SerialApp_Resp
//  482  *
//  483  * @brief   Send data OTA.
//  484  *
//  485  * @param   none
//  486  *
//  487  * @return  none
//  488  */
//  489 static void SerialApp_Resp(void)
//  490 {
//  491   if (afStatus_SUCCESS != AF_DataRequest(&SerialApp_RxAddr,
//  492                                          (endPointDesc_t *)&SerialApp_epDesc,
//  493                                           SERIALAPP_CLUSTERID2,
//  494                                           SERIAL_APP_RSP_CNT, SerialApp_RspBuf,
//  495                                          &SerialApp_MsgID, 0, AF_DEFAULT_RADIUS))
//  496   {
//  497     osal_set_event(SerialApp_TaskID, SERIALAPP_RESP_EVT);
//  498   }
//  499 }
//  500 
//  501 /*********************************************************************
//  502  * @fn      SerialApp_CallBack
//  503  *
//  504  * @brief   Send data OTA.
//  505  *
//  506  * @param   port - UART port.
//  507  * @param   event - the UART port event flag.
//  508  *
//  509  * @return  none
//  510  */

        RSEG BANKED_CODE:CODE:NOROOT(0)
//  511 static void SerialApp_CallBack(uint8 port, uint8 event)
SerialApp_CallBack:
        CFI Block cfiBlock16 Using cfiCommon0
        CFI Function SerialApp_CallBack
        CODE
//  512 {
        FUNCALL SerialApp_CallBack, SerialApp_Send
        LOCFRAME ISTACK, 0, STACK
        LOCFRAME PSTACK, 0, STACK
        LOCFRAME XSTACK, 9, STACK
        LOCFRAME IOVERLAY, 0, STATIC
        LOCFRAME DOVERLAY, 0, STATIC
        ARGFRAME ISTACK, 0, STACK
        ARGFRAME PSTACK, 0, STACK
        ARGFRAME XSTACK, 9, STACK
        ARGFRAME IOVERLAY, 0, STATIC
        ARGFRAME DOVERLAY, 0, STATIC
        MOV     A,#-0x9
        LCALL   ?BANKED_ENTER_XDATA
        CFI DPH0 load(1, XDATA, add(CFA_XSP16, literal(-1)))
        CFI DPL0 load(1, XDATA, add(CFA_XSP16, literal(-2)))
        CFI ?BRET_EXT load(1, XDATA, add(CFA_XSP16, literal(-3)))
        CFI ?RET_HIGH load(1, XDATA, add(CFA_XSP16, literal(-4)))
        CFI ?RET_LOW load(1, XDATA, add(CFA_XSP16, literal(-5)))
        CFI R7 load(1, XDATA, add(CFA_XSP16, literal(-6)))
        CFI V0 load(1, XDATA, add(CFA_XSP16, literal(-7)))
        CFI VB load(1, XDATA, add(CFA_XSP16, literal(-8)))
        CFI R6 load(1, XDATA, add(CFA_XSP16, literal(-9)))
        CFI CFA_SP SP+0
        CFI CFA_XSP16 add(XSP16, 9)
        ; Saved register size: 9
        ; Auto size: 0
        MOV     A,R2
        MOV     R6,A
//  513   (void)port;
//  514 
//  515   if ((event & (HAL_UART_RX_FULL | HAL_UART_RX_ABOUT_FULL | HAL_UART_RX_TIMEOUT)) &&
//  516 #if SERIAL_APP_LOOPBACK
//  517       (SerialApp_TxLen < SERIAL_APP_TX_MAX))
//  518 #else
//  519       1)
        MOV     A,#0x7
        ANL     A,R6
        JZ      ??SerialApp_CallBack_0
//  520 #endif
//  521   {
//  522     SerialApp_Send();
        ; Setup parameters for call to function SerialApp_Send
        LCALL   ??SerialApp_Send?relay
//  523   }
//  524 }
??SerialApp_CallBack_0:
        LJMP    ?Subroutine0 & 0xFFFF
        CFI EndBlock cfiBlock16
//  525 
//  526 /*********************************************************************
//  527 *********************************************************************/
//  528 void  SerialApp_DeviceConnect()              
//  529 {
//  530 #if ZDO_COORDINATOR
//  531   
//  532 #else
//  533   
//  534   uint16 nwkAddr;
//  535   uint16 parentNwkAddr;
//  536   char buff[30] = {0};
//  537   
//  538   HalLedBlink( HAL_LED_2, 3, 50, (1000 / 4) );
//  539   
//  540   nwkAddr = NLME_GetShortAddr();
//  541   parentNwkAddr = NLME_GetCoordShortAddr();
//  542   sprintf(buff, "p:%d   s:%d\r\n", parentNwkAddr, nwkAddr);
//  543   HalUARTWrite ( 0, (uint8*)buff, strlen(buff));
//  544   
//  545   SerialApp_TxAddr.addrMode = (afAddrMode_t)Addr16Bit;
//  546   SerialApp_TxAddr.endPoint = SERIALAPP_COORPOINT;
//  547   SerialApp_TxAddr.addr.shortAddr = parentNwkAddr;
//  548   
//  549   buff[0] = HI_UINT16( nwkAddr );
//  550   buff[1] = LO_UINT16( nwkAddr );
//  551   
//  552   if ( AF_DataRequest( &SerialApp_TxAddr, &SerialApp_epDesc,
//  553                        SERIALAPP_CONNECTREQ_CLUSTER,
//  554                        2,
//  555                        (uint8*)buff,
//  556                        &SerialApp_MsgID, 
//  557                        0, 
//  558                        AF_DEFAULT_RADIUS ) == afStatus_SUCCESS )
//  559   {
//  560   }
//  561   else
//  562   {
//  563     // Error occurred in request to send.
//  564   }
//  565   
//  566 #endif    //ZDO_COORDINATOR
//  567 }
//  568 
//  569 void SerialApp_DeviceConnectRsp(uint8 *buf)
//  570 {
//  571 #if ZDO_COORDINATOR
//  572   
//  573 #else
//  574   SerialApp_TxAddr.addrMode = (afAddrMode_t)Addr16Bit;
//  575   SerialApp_TxAddr.endPoint = SERIALAPP_COORPOINT;
//  576   SerialApp_TxAddr.addr.shortAddr = BUILD_UINT16(buf[1], buf[0]);
//  577   
//  578   HalLedSet(HAL_LED_2, HAL_LED_MODE_ON);
//  579   HalUARTWrite ( 0, "connect success, endpoint\n", 23);
//  580 #endif
//  581 }
//  582 

        RSEG BANKED_CODE:CODE:NOROOT(0)
//  583 void SerialApp_ConnectReqProcess(uint8 *buf, uint8 endPoint)
SerialApp_ConnectReqProcess:
        CFI Block cfiBlock17 Using cfiCommon0
        CFI Function SerialApp_ConnectReqProcess
        CODE
//  584 {
        FUNCALL SerialApp_ConnectReqProcess, NLME_GetShortAddr
        LOCFRAME ISTACK, 0, STACK
        LOCFRAME PSTACK, 0, STACK
        LOCFRAME XSTACK, 42, STACK
        LOCFRAME IOVERLAY, 0, STATIC
        LOCFRAME DOVERLAY, 0, STATIC
        ARGFRAME ISTACK, 0, STACK
        ARGFRAME PSTACK, 0, STACK
        ARGFRAME XSTACK, 42, STACK
        ARGFRAME IOVERLAY, 0, STATIC
        ARGFRAME DOVERLAY, 0, STATIC
        FUNCALL SerialApp_ConnectReqProcess, sprintf
        LOCFRAME ISTACK, 0, STACK
        LOCFRAME PSTACK, 0, STACK
        LOCFRAME XSTACK, 48, STACK
        LOCFRAME IOVERLAY, 0, STATIC
        LOCFRAME DOVERLAY, 0, STATIC
        ARGFRAME ISTACK, 0, STACK
        ARGFRAME PSTACK, 0, STACK
        ARGFRAME XSTACK, 48, STACK
        ARGFRAME IOVERLAY, 0, STATIC
        ARGFRAME DOVERLAY, 0, STATIC
        FUNCALL SerialApp_ConnectReqProcess, strlen
        LOCFRAME ISTACK, 0, STACK
        LOCFRAME PSTACK, 0, STACK
        LOCFRAME XSTACK, 42, STACK
        LOCFRAME IOVERLAY, 0, STATIC
        LOCFRAME DOVERLAY, 0, STATIC
        ARGFRAME ISTACK, 0, STACK
        ARGFRAME PSTACK, 0, STACK
        ARGFRAME XSTACK, 42, STACK
        ARGFRAME IOVERLAY, 0, STATIC
        ARGFRAME DOVERLAY, 0, STATIC
        FUNCALL SerialApp_ConnectReqProcess, HalUARTWrite
        LOCFRAME ISTACK, 0, STACK
        LOCFRAME PSTACK, 0, STACK
        LOCFRAME XSTACK, 42, STACK
        LOCFRAME IOVERLAY, 0, STATIC
        LOCFRAME DOVERLAY, 0, STATIC
        ARGFRAME ISTACK, 0, STACK
        ARGFRAME PSTACK, 0, STACK
        ARGFRAME XSTACK, 42, STACK
        ARGFRAME IOVERLAY, 0, STATIC
        ARGFRAME DOVERLAY, 0, STATIC
        FUNCALL SerialApp_ConnectReqProcess, AF_DataRequest
        LOCFRAME ISTACK, 0, STACK
        LOCFRAME PSTACK, 0, STACK
        LOCFRAME XSTACK, 51, STACK
        LOCFRAME IOVERLAY, 0, STATIC
        LOCFRAME DOVERLAY, 0, STATIC
        ARGFRAME ISTACK, 0, STACK
        ARGFRAME PSTACK, 0, STACK
        ARGFRAME XSTACK, 51, STACK
        ARGFRAME IOVERLAY, 0, STATIC
        ARGFRAME DOVERLAY, 0, STATIC
        FUNCALL SerialApp_ConnectReqProcess, HalLedSet
        LOCFRAME ISTACK, 0, STACK
        LOCFRAME PSTACK, 0, STACK
        LOCFRAME XSTACK, 42, STACK
        LOCFRAME IOVERLAY, 0, STATIC
        LOCFRAME DOVERLAY, 0, STATIC
        ARGFRAME ISTACK, 0, STACK
        ARGFRAME PSTACK, 0, STACK
        ARGFRAME XSTACK, 42, STACK
        ARGFRAME IOVERLAY, 0, STATIC
        ARGFRAME DOVERLAY, 0, STATIC
        FUNCALL SerialApp_ConnectReqProcess, HalUARTWrite
        LOCFRAME ISTACK, 0, STACK
        LOCFRAME PSTACK, 0, STACK
        LOCFRAME XSTACK, 42, STACK
        LOCFRAME IOVERLAY, 0, STATIC
        LOCFRAME DOVERLAY, 0, STATIC
        ARGFRAME ISTACK, 0, STACK
        ARGFRAME PSTACK, 0, STACK
        ARGFRAME XSTACK, 42, STACK
        ARGFRAME IOVERLAY, 0, STATIC
        ARGFRAME DOVERLAY, 0, STATIC
        MOV     A,#-0xc
        LCALL   ?BANKED_ENTER_XDATA
        CFI DPH0 load(1, XDATA, add(CFA_XSP16, literal(-1)))
        CFI DPL0 load(1, XDATA, add(CFA_XSP16, literal(-2)))
        CFI ?BRET_EXT load(1, XDATA, add(CFA_XSP16, literal(-3)))
        CFI ?RET_HIGH load(1, XDATA, add(CFA_XSP16, literal(-4)))
        CFI ?RET_LOW load(1, XDATA, add(CFA_XSP16, literal(-5)))
        CFI R7 load(1, XDATA, add(CFA_XSP16, literal(-6)))
        CFI V3 load(1, XDATA, add(CFA_XSP16, literal(-7)))
        CFI V2 load(1, XDATA, add(CFA_XSP16, literal(-8)))
        CFI V1 load(1, XDATA, add(CFA_XSP16, literal(-9)))
        CFI V0 load(1, XDATA, add(CFA_XSP16, literal(-10)))
        CFI VB load(1, XDATA, add(CFA_XSP16, literal(-11)))
        CFI R6 load(1, XDATA, add(CFA_XSP16, literal(-12)))
        CFI CFA_SP SP+0
        CFI CFA_XSP16 add(XSP16, 12)
        ; Saved register size: 12
        ; Auto size: 30
        MOV     A,#-0x1e
        LCALL   ?ALLOC_XSTACK8
        CFI CFA_XSP16 add(XSP16, 42)
        MOV     A,R1
        MOV     R6,A
//  585   uint16 nwkAddr;
//  586   char buff[30] = {0};
        MOV     DPL,?XSP + 0
        MOV     DPH,?XSP + 1
        MOV     R4,DPL
        MOV     R5,DPH
        MOV     DPH,#(`?<Constant {0}>` >> 8) & 0xff
        MOV     DPL,#`?<Constant {0}>` & 0xff
        MOV     A,#0x1e
        LCALL   ?MOVE_LONG8_XDATA_XDATA
//  587   
//  588   SerialApp_TxAddr.addrMode = (afAddrMode_t)Addr16Bit;
        MOV     DPTR,#SerialApp_TxAddr + 8
        MOV     A,#0x2
        MOVX    @DPTR,A
//  589   SerialApp_TxAddr.endPoint = endPoint;
        MOV     A,R6
        INC     DPTR
        MOVX    @DPTR,A
//  590   SerialApp_TxAddr.addr.shortAddr = BUILD_UINT16(buf[1], buf[0]);
        MOV     DPL,R2
        MOV     DPH,R3
        INC     DPTR
        MOVX    A,@DPTR
        MOV     R4,A
        MOV     DPL,R2
        MOV     DPH,R3
        MOVX    A,@DPTR
        MOV     R1,A
        MOV     A,R4
        MOV     DPTR,#SerialApp_TxAddr
        MOVX    @DPTR,A
        INC     DPTR
        MOV     A,R1
        MOVX    @DPTR,A
//  591   nwkAddr = NLME_GetShortAddr();
        ; Setup parameters for call to function NLME_GetShortAddr
        LCALL   ??NLME_GetShortAddr?relay
        MOV     ?V0 + 0,R2
        MOV     ?V0 + 1,R3
//  592   
//  593   sprintf(buff, "s:%d  c:%d  endpoint: %d\r\n", nwkAddr, SerialApp_TxAddr.addr.shortAddr, endPoint);
        ; Setup parameters for call to function sprintf
        MOV     ?V0 + 2,R6
        MOV     ?V0 + 3,#0x0
        MOV     R0,#?V0 + 2
        LCALL   ?PUSH_XSTACK_I_TWO
        CFI CFA_XSP16 add(XSP16, 44)
        MOV     DPTR,#SerialApp_TxAddr
        LCALL   ?PUSH_XSTACK8_X_TWO
        CFI CFA_XSP16 add(XSP16, 46)
        MOV     R0,#?V0 + 0
        LCALL   ?PUSH_XSTACK_I_TWO
        CFI CFA_XSP16 add(XSP16, 48)
        MOV     R4,#`?<Constant "s:%d  c:%d  endpoint:...">` & 0xff
        MOV     R5,#(`?<Constant "s:%d  c:%d  endpoint:...">` >> 8) & 0xff
        MOV     A,#0x6
        LCALL   ?XSTACK_DISP0_8
        MOV     R2,DPL
        MOV     R3,DPH
        LCALL   ??sprintf?relay
        MOV     A,#0x6
        LCALL   ?DEALLOC_XSTACK8
        CFI CFA_XSP16 add(XSP16, 42)
//  594   HalUARTWrite ( 0, (uint8*)buff, strlen(buff));
        ; Setup parameters for call to function HalUARTWrite
        ; Setup parameters for call to function strlen
        MOV     DPL,?XSP + 0
        MOV     DPH,?XSP + 1
        MOV     R2,DPL
        MOV     R3,DPH
        LCALL   ??strlen?relay
        MOV     A,R2
        MOV     R4,A
        MOV     A,R3
        MOV     R5,A
        MOV     DPL,?XSP + 0
        MOV     DPH,?XSP + 1
        MOV     R2,DPL
        MOV     R3,DPH
        MOV     R1,#0x0
        LCALL   ??HalUARTWrite?relay
//  595   
//  596   buff[0] = HI_UINT16( nwkAddr );
        MOV     DPL,?XSP + 0
        MOV     DPH,?XSP + 1
        MOV     A,?V0 + 1
        MOVX    @DPTR,A
//  597   buff[1] = LO_UINT16( nwkAddr );
        MOV     A,#0x1
        LCALL   ?XSTACK_DISP0_8
        MOV     A,?V0 + 0
        MOVX    @DPTR,A
//  598   
//  599   if ( AF_DataRequest( &SerialApp_TxAddr, &SerialApp_epDesc,
//  600                        SERIALAPP_CONNECTRSP_CLUSTER,
//  601                        2,
//  602                        (uint8*)buff,
//  603                        &SerialApp_MsgID, 
//  604                        0, 
//  605                        AF_DEFAULT_RADIUS ) == afStatus_SUCCESS )
        ; Setup parameters for call to function AF_DataRequest
        MOV     ?V0 + 0,#0x1e
        MOV     R0,#?V0 + 0
        LCALL   ?PUSH_XSTACK_I_ONE
        CFI CFA_XSP16 add(XSP16, 43)
        MOV     ?V0 + 0,#SerialApp_MsgID & 0xff
        MOV     ?V0 + 1,#(SerialApp_MsgID >> 8) & 0xff
        MOV     R0,#?V0 + 0
        LCALL   ?PUSH_XSTACK_I_TWO
        CFI CFA_XSP16 add(XSP16, 45)
        MOV     A,#0x3
        LCALL   ?XSTACK_DISP0_8
        MOV     ?V0 + 0,DPL
        MOV     ?V0 + 1,DPH
        MOV     R0,#?V0 + 0
        LCALL   ?PUSH_XSTACK_I_TWO
        CFI CFA_XSP16 add(XSP16, 47)
        MOV     ?V0 + 0,#0x2
        MOV     ?V0 + 1,#0x0
        MOV     R0,#?V0 + 0
        LCALL   ?PUSH_XSTACK_I_TWO
        CFI CFA_XSP16 add(XSP16, 49)
        MOV     ?V0 + 0,#0x4
        MOV     R0,#?V0 + 0
        LCALL   ?PUSH_XSTACK_I_TWO
        CFI CFA_XSP16 add(XSP16, 51)
        MOV     R1,#0x0
        MOV     R4,#SerialApp_epDesc & 0xff
        MOV     R5,#(SerialApp_epDesc >> 8) & 0xff
        MOV     R2,#SerialApp_TxAddr & 0xff
        MOV     R3,#(SerialApp_TxAddr >> 8) & 0xff
        LCALL   ??AF_DataRequest?relay
        MOV     A,#0x9
        LCALL   ?DEALLOC_XSTACK8
        CFI CFA_XSP16 add(XSP16, 42)
//  606   {
//  607   }
//  608   else
//  609   {
//  610     // Error occurred in request to send.
//  611   }
//  612   SerialApp_TxAddr.addrMode = afAddrBroadcast;
        MOV     DPTR,#SerialApp_TxAddr + 8
        MOV     A,#0xf
        MOVX    @DPTR,A
//  613   SerialApp_TxAddr.addr.shortAddr = 0xFFFF;
        MOV     DPTR,#SerialApp_TxAddr
        MOV     A,#-0x1
        MOVX    @DPTR,A
        INC     DPTR
        MOVX    @DPTR,A
//  614   HalLedSet(HAL_LED_2, HAL_LED_MODE_ON);
        ; Setup parameters for call to function HalLedSet
        MOV     R2,#0x1
        MOV     R1,#0x2
        LCALL   ??HalLedSet?relay
//  615   HalUARTWrite ( 0, "connect success, coor\n", 23);
        ; Setup parameters for call to function HalUARTWrite
        MOV     R4,#0x17
        MOV     R5,#0x0
        MOV     R2,#`?<Constant "connect success, coor\\n">` & 0xff
        MOV     R3,#(`?<Constant "connect success, coor\\n">` >> 8) & 0xff
        MOV     R1,#0x0
        LCALL   ??HalUARTWrite?relay
//  616 }
        MOV     A,#0x1e
        LCALL   ?DEALLOC_XSTACK8
        CFI CFA_XSP16 add(XSP16, 12)
        LJMP    ?Subroutine1 & 0xFFFF
        CFI EndBlock cfiBlock17

        RSEG XDATA_ID:CODE:NOROOT(0)
`?<Initializer for SerialApp_epDesc>`:
        DATA8
        DB 1
        DATA16
        DW SerialApp_TaskID
        DW SerialApp_SimpleDesc
        DATA8
        DB 0

        RSEG BANK_RELAYS:CODE:REORDER:NOROOT(0)
??SerialApp_Init?relay:
        LCALL   ?BDISPATCH
        DATA
        DC24    SerialApp_Init

        RSEG BANK_RELAYS:CODE:REORDER:NOROOT(0)
??SerialApp_ProcessEvent?relay:
        LCALL   ?BDISPATCH
        DATA
        DC24    SerialApp_ProcessEvent

        RSEG BANK_RELAYS:CODE:REORDER:NOROOT(0)
??SerialApp_ProcessMSGCmd?relay:
        LCALL   ?BDISPATCH
        DATA
        DC24    SerialApp_ProcessMSGCmd

        RSEG BANK_RELAYS:CODE:REORDER:NOROOT(0)
??SerialApp_Send?relay:
        LCALL   ?BDISPATCH
        DATA
        DC24    SerialApp_Send

        RSEG BANK_RELAYS:CODE:REORDER:NOROOT(0)
??SerialApp_CallBack?relay:
        LCALL   ?BDISPATCH
        DATA
        DC24    SerialApp_CallBack

        RSEG BANK_RELAYS:CODE:REORDER:NOROOT(0)
??SerialApp_ConnectReqProcess?relay:
        LCALL   ?BDISPATCH
        DATA
        DC24    SerialApp_ConnectReqProcess

        RSEG XDATA_ROM_C:CONST:REORDER:NOROOT(0)
        DATA8
`?<Constant "SerialApp">`:
        DB "SerialApp"

        RSEG XDATA_ROM_C:CONST:REORDER:NOROOT(0)
        DATA8
`?<Constant {0}>`:
        DB 0
        DB 0, 0, 0, 0, 0, 0, 0, 0
        DB 0, 0, 0, 0, 0, 0, 0, 0
        DB 0, 0, 0, 0, 0, 0, 0, 0
        DB 0, 0, 0, 0, 0

        RSEG XDATA_ROM_C:CONST:REORDER:NOROOT(0)
        DATA8
`?<Constant "s:%d  c:%d  endpoint:...">`:
        DB "s:%d  c:%d  endpoint: %d\015\012"

        RSEG XDATA_ROM_C:CONST:REORDER:NOROOT(0)
        DATA8
`?<Constant "connect success, coor\\n">`:
        DB "connect success, coor\012"

        END
// 
// 1 237 bytes in segment BANKED_CODE
//    36 bytes in segment BANK_RELAYS
//     6 bytes in segment XDATA_I
//     6 bytes in segment XDATA_ID
//   110 bytes in segment XDATA_ROM_C
//   529 bytes in segment XDATA_Z
// 
// 1 279 bytes of CODE  memory
//   110 bytes of CONST memory
//   535 bytes of XDATA memory
//
//Errors: none
//Warnings: 4
